(iclasses.project
project
p1
(dp2
S'USER_DIR'
p3
S'/home/emi/.openshot'
p4
sS'IMAGE_DIR'
p5
S'/usr/lib/pymodules/python2.7/openshot/images'
p6
sS'theme_settings'
p7
NsS'THEMES_DIR'
p8
S'/usr/lib/pymodules/python2.7/openshot/themes'
p9
sS'TRANSITIONS_DIR'
p10
S'/usr/lib/pymodules/python2.7/openshot/transitions'
p11
sS'mlt_profile'
p12
NsS'is_modified'
p13
I00
sS'DESKTOP'
p14
S'/home/emi/Desktop'
p15
sS'LOCALE_DIR'
p16
S'/usr/lib/pymodules/python2.7/openshot/locale'
p17
sS'tabs'
p18
(lp19
(iclasses.sequences
sequence
p20
(dp21
S'enable_animated_playhead'
p22
I01
sS'scale'
p23
I3
sS'name'
p24
S'Secuencia predeterminada 1'
p25
sS'play_head'
p26
NsS'drag_y'
p27
F41.5
sS'play_head_position'
p28
F331.85000000000002
sS'tick_pixels'
p29
I100
sS'tracks'
p30
(lp31
(iclasses.track
track
p32
(dp33
S'clips'
p34
(lp35
(iclasses.clip
clip
p36
(dp37
S'color'
p38
S'Gold'
p39
sS'moved'
p40
I01
sS'video_fade_out'
p41
I00
sS'keyframes'
p42
(dp43
S'start'
p44
(iclasses.keyframe
keyframe
p45
(dp46
S'frame'
p47
I0
sS'height'
p48
F100
sS'width'
p49
F100
sS'x'
F0
sS'y'
F0
sS'alpha'
p50
F1
sS'unique_id'
p51
S'd75aae78-cf29-11e8-9c22-c038960d2073'
p52
sbsS'end'
p53
(iclasses.keyframe
keyframe
p54
(dp55
g47
I-1
sg48
F100
sg49
F100
sS'x'
F0
sS'y'
F0
sg50
F1
sg51
S'd75aafa4-cf29-11e8-9c22-c038960d2073'
p56
sbssS'video_fade_out_amount'
p57
F2
sS'audio_fade_out'
p58
I00
sS'reversed'
p59
I00
sS'speed'
p60
F1
sS'fill'
p61
I01
sS'audio_fade_in_amount'
p62
F2
sS'position_on_track'
p63
F-2.2648549702353194e-16
sS'drag_y'
p64
F37.5
sS'drag_x'
p65
F81.5
sS'play_audio'
p66
I01
sS'audio_fade_out_amount'
p67
F2
sS'max_length'
p68
F300
sS'show_preview'
p69
I00
sS'valign'
p70
S'centre'
p71
sS'video_fade_in'
p72
I00
sS'audio_fade_in'
p73
I00
sS'request_show_properties'
p74
I00
sS'video_fade_in_amount'
p75
F2
sS'parent'
p76
g32
sS'composite'
p77
I01
sS'start_time'
p78
F0
sS'file_object'
p79
(iclasses.files
OpenShotFile
p80
(dp81
S'max_frames'
p82
F14999
sS'audio_codec'
p83
S''
sS'audio_channels'
p84
I0
sS'thumb_location'
p85
S'/home/emi/Escritorio/thumbnail/d0819594-cf29-11e8-9c22-c038960d2073_png_1.png'
p86
sS'name'
p87
S'/home/emi/Escritorio/Nuevas Tecnologias/1\xc2\xba Trimestre/big data presentacion/imagenes video/01.png'
p88
sS'parent'
p89
NsS'file_type'
p90
S'image'
p91
sS'audio_frequency'
p92
I0
sg48
I1080
sS'project'
p93
g1
sg49
I1920
sS'length'
p94
F300
sS'fps'
p95
F29.970029970029969
sS'ttl'
p96
I1
sS'video_codec'
p97
S''
sS'videorate'
p98
(F29.970029970029969
I0
tp99
sS'label'
p100
S''
sg51
S'd08b6420-cf29-11e8-9c22-c038960d2073'
p101
sbsS'distort'
p102
I00
sS'volume'
p103
F100
sS'effects'
p104
(lp105
sS'rotation'
p106
F0
sS'is_timeline_scrolling'
p107
I00
sS'thumb_location'
p108
S'/home/emi/Escritorio/thumbnail/d0819594-cf29-11e8-9c22-c038960d2073_png_1.png'
p109
sg24
S'01.png'
p110
sS'halign'
p111
g71
sS'play_video'
p112
I01
sS'end_time'
p113
F7
sS'unique_id'
p114
S'd75aabee-cf29-11e8-9c22-c038960d2073'
p115
sba(iclasses.clip
clip
p116
(dp117
S'color'
p118
S'Gold'
p119
sS'moved'
p120
I01
sS'video_fade_out'
p121
I00
sS'keyframes'
p122
(dp123
S'start'
p124
(iclasses.keyframe
keyframe
p125
(dp126
g47
I0
sg48
F100
sg49
F100
sS'x'
F0
sS'y'
F0
sg50
F1
sg51
S'4dbefee0-d482-11e8-b976-c038960d2073'
p127
sbsS'end'
p128
(iclasses.keyframe
keyframe
p129
(dp130
g47
I-1
sg48
F100
sg49
F100
sS'x'
F0
sS'y'
F0
sg50
F1
sg51
S'4dbf0110-d482-11e8-b976-c038960d2073'
p131
sbssS'video_fade_out_amount'
p132
F2
sS'audio_fade_out'
p133
I00
sS'reversed'
p134
I00
sS'speed'
p135
F1
sS'fill'
p136
I01
sS'audio_fade_in_amount'
p137
F2
sS'position_on_track'
p138
F7
sS'drag_y'
p139
F41.075000000000003
sS'drag_x'
p140
F243.07499999999999
sS'play_audio'
p141
I01
sS'audio_fade_out_amount'
p142
F2
sS'max_length'
p143
F300
sS'show_preview'
p144
I00
sS'valign'
p145
S'centre'
p146
sS'video_fade_in'
p147
I00
sS'audio_fade_in'
p148
I00
sS'request_show_properties'
p149
I00
sS'video_fade_in_amount'
p150
F2
sS'parent'
p151
g32
sS'composite'
p152
I01
sS'start_time'
p153
F0
sS'file_object'
p154
g80
sS'distort'
p155
I00
sS'volume'
p156
F100
sS'effects'
p157
(lp158
sS'rotation'
p159
F0
sS'is_timeline_scrolling'
p160
I00
sS'thumb_location'
p161
S'/home/emi/Escritorio/thumbnail/d0819594-cf29-11e8-9c22-c038960d2073_png_1.png'
p162
sS'name'
p163
S'01.png'
p164
sS'halign'
p165
g146
sS'play_video'
p166
I01
sS'end_time'
p167
F7
sS'unique_id'
p168
S'4dbefb8e-d482-11e8-b976-c038960d2073'
p169
sba(iclasses.clip
clip
p170
(dp171
g38
g39
sg40
I00
sg41
I00
sg42
(dp172
g44
(iclasses.keyframe
keyframe
p173
(dp174
g47
I0
sg48
F100
sg49
F100
sS'x'
F0
sS'y'
F0
sg50
F1
sg51
S'3a9320a6-cf2a-11e8-9c22-c038960d2073'
p175
sbsg53
(iclasses.keyframe
keyframe
p176
(dp177
g47
I-1
sg48
F100
sg49
F100
sS'x'
F0
sS'y'
F0
sg50
F1
sg51
S'3a9321d2-cf2a-11e8-9c22-c038960d2073'
p178
sbssg57
F2
sg58
I00
sg59
I00
sg60
F1
sg61
I01
sg62
F2
sg63
F14
sg64
F37.5
sg65
F1586.5
sg66
I01
sg67
F2
sg68
F300
sg144
I00
sg70
g71
sg72
I00
sg73
I00
sg149
I00
sg75
F2
sg76
g32
sg77
I01
sg78
F0
sg79
g80
sg102
I00
sg103
F100
sg104
(lp179
sg106
F0
sg107
I00
sg108
g109
sg24
S'01.png'
p180
sg111
g71
sg112
I01
sg113
F1.8650000000000002
sg114
S'3a931e44-cf2a-11e8-9c22-c038960d2073'
p181
sba(iclasses.clip
clip
p182
(dp183
S'color'
p184
S'Gold'
p185
sS'moved'
p186
I00
sS'video_fade_out'
p187
I00
sS'keyframes'
p188
(dp189
S'start'
p190
(iclasses.keyframe
keyframe
p191
(dp192
g47
I0
sg48
F100
sg49
F100
sS'x'
F0
sS'y'
F0
sg50
F1
sg51
S'211d4cbe-d2db-11e8-a821-f0761c1894b4'
p193
sbsS'end'
p194
(iclasses.keyframe
keyframe
p195
(dp196
g47
I-1
sg48
F100
sg49
F100
sS'x'
F0
sS'y'
F0
sg50
F1
sg51
S'211d4dd6-d2db-11e8-a821-f0761c1894b4'
p197
sbssS'video_fade_out_amount'
p198
F2
sS'audio_fade_out'
p199
I00
sS'reversed'
p200
I00
sS'speed'
p201
F1
sS'fill'
p202
I01
sS'audio_fade_in_amount'
p203
F2
sS'position_on_track'
p204
F15.880000000000003
sg27
F38.5
sS'drag_x'
p205
F1872.7000000000003
sS'play_audio'
p206
I01
sS'audio_fade_out_amount'
p207
F2
sS'max_length'
p208
F300
sg144
I00
sS'valign'
p209
S'centre'
p210
sS'video_fade_in'
p211
I00
sS'audio_fade_in'
p212
I00
sg149
I00
sS'video_fade_in_amount'
p213
F2
sS'parent'
p214
g32
sS'composite'
p215
I01
sS'start_time'
p216
F0
sS'file_object'
p217
(iclasses.files
OpenShotFile
p218
(dp219
g82
F14999
sg83
S''
sg84
I0
sg85
S'/home/emi/Escritorio/thumbnail/d0757f7a-cf29-11e8-9c22-c038960d2073_png_1.png'
p220
sg87
S'/home/emi/Escritorio/Nuevas Tecnologias/1\xc2\xba Trimestre/big data presentacion/imagenes video/02.png'
p221
sg89
Nsg90
g91
sg92
I0
sg48
I1080
sg93
g1
sg49
I1920
sg94
F300
sg95
F29.970029970029969
sg96
I1
sg97
S''
sg98
(F29.970029970029969
I0
tp222
sg100
S''
sg51
S'd08143be-cf29-11e8-9c22-c038960d2073'
p223
sbsS'distort'
p224
I00
sS'volume'
p225
F100
sS'effects'
p226
(lp227
sS'rotation'
p228
F0
sS'is_timeline_scrolling'
p229
I00
sS'thumb_location'
p230
S'/home/emi/Escritorio/thumbnail/d0757f7a-cf29-11e8-9c22-c038960d2073_png_1.png'
p231
sS'name'
p232
S'02.png'
p233
sS'halign'
p234
g210
sS'play_video'
p235
I01
sS'end_time'
p236
F7
sS'unique_id'
p237
S'211d4a5c-d2db-11e8-a821-f0761c1894b4'
p238
sba(iclasses.clip
clip
p239
(dp240
S'color'
p241
S'Gold'
p242
sS'moved'
p243
I00
sS'video_fade_out'
p244
I00
sS'keyframes'
p245
(dp246
S'start'
p247
(iclasses.keyframe
keyframe
p248
(dp249
g47
I0
sg48
F100
sg49
F100
sS'x'
F0
sS'y'
F0
sg50
F1
sg51
S'52af01a0-cf2a-11e8-9c22-c038960d2073'
p250
sbsS'end'
p251
(iclasses.keyframe
keyframe
p252
(dp253
g47
I-1
sg48
F100
sg49
F100
sS'x'
F0
sS'y'
F0
sg50
F1
sg51
S'52af02e0-cf2a-11e8-9c22-c038960d2073'
p254
sbssS'video_fade_out_amount'
p255
F2
sS'audio_fade_out'
p256
I00
sS'reversed'
p257
I00
sS'speed'
p258
F1
sS'fill'
p259
I01
sS'audio_fade_in_amount'
p260
F2
sS'position_on_track'
p261
F22.879999999999999
sS'drag_y'
p262
F46.075000000000003
sS'drag_x'
p263
F429.57499999999999
sS'play_audio'
p264
I01
sS'audio_fade_out_amount'
p265
F2
sS'max_length'
p266
F300
sg144
I00
sS'valign'
p267
S'centre'
p268
sS'video_fade_in'
p269
I00
sS'audio_fade_in'
p270
I00
sg149
I00
sS'video_fade_in_amount'
p271
F2
sS'parent'
p272
g32
sS'composite'
p273
I01
sS'start_time'
p274
F0
sS'file_object'
p275
g218
sS'distort'
p276
I00
sS'volume'
p277
F100
sS'effects'
p278
(lp279
sS'rotation'
p280
F0
sS'is_timeline_scrolling'
p281
I00
sS'thumb_location'
p282
S'/home/emi/Escritorio/thumbnail/d0757f7a-cf29-11e8-9c22-c038960d2073_png_1.png'
p283
sS'name'
p284
S'02.png'
p285
sS'halign'
p286
g268
sS'play_video'
p287
I01
sS'end_time'
p288
F7
sS'unique_id'
p289
S'52aeff02-cf2a-11e8-9c22-c038960d2073'
p290
sba(iclasses.clip
clip
p291
(dp292
g184
g185
sg186
I00
sg187
I00
sg188
(dp293
g190
(iclasses.keyframe
keyframe
p294
(dp295
g47
I0
sg48
F100
sg49
F100
sS'x'
F0
sS'y'
F0
sg50
F1
sg51
S'226bc348-d2db-11e8-a821-f0761c1894b4'
p296
sbsg194
(iclasses.keyframe
keyframe
p297
(dp298
g47
I-1
sg48
F100
sg49
F100
sS'x'
F0
sS'y'
F0
sg50
F1
sg51
S'226bc474-d2db-11e8-a821-f0761c1894b4'
p299
sbssg198
F2
sg199
I00
sg200
I00
sg201
F1
sg202
I01
sg203
F2
sg204
F29.879999999999999
sg27
F48.075000000000003
sg205
F821.57500000000005
sg206
I01
sg207
F2
sg208
F300
sg144
I00
sg209
g210
sg211
I00
sg212
I00
sg149
I00
sg213
F2
sg214
g32
sg215
I01
sg216
F0
sg217
g218
sg224
I00
sg225
F100
sg226
(lp300
sg228
F0
sg229
I00
sg230
g231
sg232
S'02.png'
p301
sg234
g210
sg235
I01
sg236
F7
sg237
S'226bc0be-d2db-11e8-a821-f0761c1894b4'
p302
sba(iclasses.clip
clip
p303
(dp304
g184
g185
sg186
I00
sg187
I00
sg188
(dp305
g190
(iclasses.keyframe
keyframe
p306
(dp307
g47
I0
sg48
F100
sg49
F100
sS'x'
F0
sS'y'
F0
sg50
F1
sg51
S'18befa18-d2db-11e8-a821-f0761c1894b4'
p308
sbsg194
(iclasses.keyframe
keyframe
p309
(dp310
g47
I-1
sg48
F100
sg49
F100
sS'x'
F0
sS'y'
F0
sg50
F1
sg51
S'18befb44-d2db-11e8-a821-f0761c1894b4'
p311
sbssg198
F2
sg199
I00
sg200
I00
sg201
F1
sg202
I01
sg203
F2
sg204
F36.880000000000003
sg27
F47.075000000000003
sg205
F535.07500000000005
sg206
I01
sg207
F2
sg208
F300
sg144
I00
sg209
g210
sg211
I00
sg212
I00
sg149
I00
sg213
F2
sg214
g32
sg215
I01
sg216
F0
sg217
g218
sg224
I00
sg225
F100
sg226
(lp312
sg228
F0
sg229
I00
sg230
g231
sg232
S'02.png'
p313
sg234
g210
sg235
I01
sg236
F7
sg237
S'18bef7ac-d2db-11e8-a821-f0761c1894b4'
p314
sba(iclasses.clip
clip
p315
(dp316
g184
g185
sg186
I00
sg187
I00
sg188
(dp317
g190
(iclasses.keyframe
keyframe
p318
(dp319
g47
I0
sg48
F100
sg49
F100
sS'x'
F0
sS'y'
F0
sg50
F1
sg51
S'1e77d34e-d2db-11e8-a821-f0761c1894b4'
p320
sbsg194
(iclasses.keyframe
keyframe
p321
(dp322
g47
I-1
sg48
F100
sg49
F100
sS'x'
F0
sS'y'
F0
sg50
F1
sg51
S'1e77d484-d2db-11e8-a821-f0761c1894b4'
p323
sbssg198
F2
sg199
I00
sg200
I00
sg201
F1
sg202
I01
sg203
F2
sg204
F43.880000000000003
sg27
F39.075000000000003
sg205
F623.07500000000005
sg206
I01
sg207
F2
sg208
F300
sg144
I00
sg209
g210
sg211
I00
sg212
I00
sg149
I00
sg213
F2
sg214
g32
sg215
I01
sg216
F0
sg217
g218
sg224
I00
sg225
F100
sg226
(lp324
sg228
F0
sg229
I00
sg230
g231
sg232
S'02.png'
p325
sg234
g210
sg235
I01
sg236
F7
sg237
S'1e77d0ba-d2db-11e8-a821-f0761c1894b4'
p326
sba(iclasses.clip
clip
p327
(dp328
g184
g185
sg186
I00
sg187
I00
sg188
(dp329
g190
(iclasses.keyframe
keyframe
p330
(dp331
g47
I0
sg48
F100
sg49
F100
sS'x'
F0
sS'y'
F0
sg50
F1
sg51
S'200352d8-d2db-11e8-a821-f0761c1894b4'
p332
sbsg194
(iclasses.keyframe
keyframe
p333
(dp334
g47
I-1
sg48
F100
sg49
F100
sS'x'
F0
sS'y'
F0
sg50
F1
sg51
S'200353fa-d2db-11e8-a821-f0761c1894b4'
p335
sbssg198
F2
sg199
I00
sg200
I00
sg201
F1
sg202
I01
sg203
F2
sg204
F50.880000000000003
sg27
F40.075000000000003
sg205
F720.07500000000005
sg206
I01
sg207
F2
sg208
F300
sg144
I00
sg209
g210
sg211
I00
sg212
I00
sg149
I00
sg213
F2
sg214
g32
sg215
I01
sg216
F0
sg217
g218
sg224
I00
sg225
F100
sg226
(lp336
sg228
F0
sg229
I00
sg230
g231
sg232
S'02.png'
p337
sg234
g210
sg235
I01
sg236
F7
sg237
S'20035058-d2db-11e8-a821-f0761c1894b4'
p338
sba(iclasses.clip
clip
p339
(dp340
g241
g242
sg243
I00
sg244
I00
sg245
(dp341
g247
(iclasses.keyframe
keyframe
p342
(dp343
g47
I0
sg48
F100
sg49
F100
sS'x'
F0
sS'y'
F0
sg50
F1
sg51
S'50b466ce-cf2a-11e8-9c22-c038960d2073'
p344
sbsg251
(iclasses.keyframe
keyframe
p345
(dp346
g47
I-1
sg48
F100
sg49
F100
sS'x'
F0
sS'y'
F0
sg50
F1
sg51
S'50b46818-cf2a-11e8-9c22-c038960d2073'
p347
sbssg255
F2
sg256
I00
sg257
I00
sg258
F1
sg259
I01
sg260
F2
sg261
F57.880000000000003
sg262
F41.5
sg263
F2500.5
sg264
I00
sg265
F2
sg266
F300
sS'show_preview'
p348
I00
sg267
g268
sg269
I00
sg270
I00
sS'request_show_properties'
p349
I00
sg271
F2
sg272
g32
sg273
I01
sg274
F0
sg275
g218
sg276
I00
sg277
F100
sg278
(lp350
sg280
F0
sg281
I00
sg282
g283
sg284
S'02.png'
p351
sg286
g268
sg287
I01
sg288
F2.7349999999999923
sg289
S'50b46412-cf2a-11e8-9c22-c038960d2073'
p352
sba(iclasses.clip
clip
p353
(dp354
g118
g119
sg120
I01
sg121
I00
sg122
(dp355
g124
(iclasses.keyframe
keyframe
p356
(dp357
g47
I0
sg48
F100
sg49
F100
sS'x'
F0
sS'y'
F0
sg50
F1
sg51
S'a3012b6c-d482-11e8-b976-c038960d2073'
p358
sbsg128
(iclasses.keyframe
keyframe
p359
(dp360
g47
I-1
sg48
F100
sg49
F100
sS'x'
F0
sS'y'
F0
sg50
F1
sg51
S'a3012ca2-d482-11e8-b976-c038960d2073'
p361
sbssg132
F2
sg133
I00
sg134
I00
sg135
F1
sg136
I01
sg137
F2
sg138
F60.615000000000002
sg139
F36.5
sg140
F798.5
sg141
I01
sg142
F2
sg143
F300
sg144
I00
sg145
g146
sg147
I00
sg148
I00
sg149
I00
sg150
F2
sg151
g32
sg152
I01
sg153
F2.7349999999999923
sg154
(iclasses.files
OpenShotFile
p362
(dp363
g82
F14999
sg83
S''
sg84
I0
sg85
S'/home/emi/Escritorio/thumbnail/d06a2350-cf29-11e8-9c22-c038960d2073_png_1.png'
p364
sg87
S'/home/emi/Escritorio/Nuevas Tecnologias/1\xc2\xba Trimestre/big data presentacion/imagenes video/03.png'
p365
sg89
Nsg90
g91
sg92
I0
sg48
I1080
sg93
g1
sg49
I1920
sg94
F300
sg95
F29.970029970029969
sg96
I1
sg97
S''
sg98
(F29.970029970029969
I0
tp366
sg100
S''
sg51
S'd0752b92-cf29-11e8-9c22-c038960d2073'
p367
sbsg155
I00
sg156
F100
sg157
(lp368
sg159
F0
sg160
I00
sg161
S'/home/emi/Escritorio/thumbnail/d06a2350-cf29-11e8-9c22-c038960d2073_png_1.png'
p369
sg163
S'03.png'
p370
sg165
g146
sg166
I01
sg167
F7
sg168
S'b08d9058-d483-11e8-b976-c038960d2073'
p371
sba(iclasses.clip
clip
p372
(dp373
g118
g119
sg120
I01
sg121
I00
sg122
(dp374
g124
(iclasses.keyframe
keyframe
p375
(dp376
g47
I0
sg48
F100
sg49
F100
sS'x'
F0
sS'y'
F0
sg50
F1
sg51
S'9d51fadc-d489-11e8-b976-c038960d2073'
p377
sbsg128
(iclasses.keyframe
keyframe
p378
(dp379
g47
I-1
sg48
F100
sg49
F100
sS'x'
F0
sS'y'
F0
sg50
F1
sg51
S'9d51fc08-d489-11e8-b976-c038960d2073'
p380
sbssg132
F2
sg133
I00
sg134
I00
sg135
F1
sg136
I01
sg137
F2
sg138
F64.88000000000001
sg139
F35.5
sg140
F863.5
sg141
I01
sg142
F2
sg143
F300
sg144
I00
sg145
g146
sg147
I00
sg148
I00
sg149
I00
sg150
F2
sg151
g32
sg152
I01
sg153
F0
sg154
g362
sg155
I00
sg156
F100
sg157
(lp381
sg159
F0
sg160
I00
sg161
g369
sg163
S'03.png'
p382
sg165
g146
sg166
I01
sg167
F7
sg168
S'9d51f848-d489-11e8-b976-c038960d2073'
p383
sba(iclasses.clip
clip
p384
(dp385
g118
g119
sg120
I01
sg121
I00
sg122
(dp386
g124
(iclasses.keyframe
keyframe
p387
(dp388
g47
I0
sg48
F100
sg49
F100
sS'x'
F0
sS'y'
F0
sg50
F1
sg51
S'9f66352c-d489-11e8-b976-c038960d2073'
p389
sbsg128
(iclasses.keyframe
keyframe
p390
(dp391
g47
I-1
sg48
F100
sg49
F100
sS'x'
F0
sS'y'
F0
sg50
F1
sg51
S'9f66364e-d489-11e8-b976-c038960d2073'
p392
sbssg132
F2
sg133
I00
sg134
I00
sg135
F1
sg136
I01
sg137
F2
sg138
F71.880000000000024
sg139
F36.5
sg140
F967.5
sg141
I01
sg142
F2
sg143
F300
sg144
I00
sg145
g146
sg147
I00
sg148
I00
sg149
I00
sg150
F2
sg151
g32
sg152
I01
sg153
F0
sg154
g362
sg155
I00
sg156
F100
sg157
(lp393
sg159
F0
sg160
I00
sg161
g369
sg163
S'03.png'
p394
sg165
g146
sg166
I01
sg167
F7
sg168
S'9f6632ac-d489-11e8-b976-c038960d2073'
p395
sba(iclasses.clip
clip
p396
(dp397
g118
g119
sg120
I01
sg121
I00
sg122
(dp398
g124
(iclasses.keyframe
keyframe
p399
(dp400
g47
I0
sg48
F100
sg49
F100
sS'x'
F0
sS'y'
F0
sg50
F1
sg51
S'a3df3a68-d489-11e8-b976-c038960d2073'
p401
sbsg128
(iclasses.keyframe
keyframe
p402
(dp403
g47
I-1
sg48
F100
sg49
F100
sS'x'
F0
sS'y'
F0
sg50
F1
sg51
S'a3df3b8a-d489-11e8-b976-c038960d2073'
p404
sbssg132
F2
sg133
I00
sg134
I00
sg135
F1
sg136
I01
sg137
F2
sg138
F78.880000000000024
sg139
F30.074999999999999
sg140
F326.07499999999982
sg141
I01
sg142
F2
sg143
F300
sg144
I00
sg145
g146
sg147
I00
sg148
I00
sg149
I00
sg150
F2
sg151
g32
sg152
I01
sg153
F0
sg154
g362
sg155
I00
sg156
F100
sg157
(lp405
sg159
F0
sg160
I00
sg161
g369
sg163
S'03.png'
p406
sg165
g146
sg166
I01
sg167
F7
sg168
S'a3df37e8-d489-11e8-b976-c038960d2073'
p407
sba(iclasses.clip
clip
p408
(dp409
g118
g119
sg120
I01
sg121
I00
sg122
(dp410
g124
(iclasses.keyframe
keyframe
p411
(dp412
g47
I0
sg48
F100
sg49
F100
sS'x'
F0
sS'y'
F0
sg50
F1
sg51
S'a517ba90-d489-11e8-b976-c038960d2073'
p413
sbsg128
(iclasses.keyframe
keyframe
p414
(dp415
g47
I-1
sg48
F100
sg49
F100
sS'x'
F0
sS'y'
F0
sg50
F1
sg51
S'a517bbb2-d489-11e8-b976-c038960d2073'
p416
sbssg132
F2
sg133
I00
sg134
I00
sg135
F1
sg136
I01
sg137
F2
sg138
F85.880000000000038
sg139
F29.074999999999999
sg140
F329.9546641791045
sg141
I01
sg142
F2
sg143
F300
sg144
I00
sg145
g146
sg147
I00
sg148
I00
sg149
I00
sg150
F2
sg151
g32
sg152
I01
sg153
F0
sg154
g362
sg155
I00
sg156
F100
sg157
(lp417
sg159
F0
sg160
I00
sg161
g369
sg163
S'03.png'
p418
sg165
g146
sg166
I01
sg167
F7
sg168
S'a517b7fc-d489-11e8-b976-c038960d2073'
p419
sba(iclasses.clip
clip
p420
(dp421
g118
g119
sg120
I01
sg121
I00
sg122
(dp422
g124
(iclasses.keyframe
keyframe
p423
(dp424
g47
I0
sg48
F100
sg49
F100
sS'x'
F0
sS'y'
F0
sg50
F1
sg51
S'a60d165c-d489-11e8-b976-c038960d2073'
p425
sbsg128
(iclasses.keyframe
keyframe
p426
(dp427
g47
I-1
sg48
F100
sg49
F100
sS'x'
F0
sS'y'
F0
sg50
F1
sg51
S'a60d1788-d489-11e8-b976-c038960d2073'
p428
sbssg132
F2
sg133
I00
sg134
I00
sg135
F1
sg136
I01
sg137
F2
sg138
F92.880000000000038
sg139
F32.075000000000003
sg140
F539.4546641791045
sg141
I01
sg142
F2
sg143
F300
sg144
I00
sg145
g146
sg147
I00
sg148
I00
sg149
I00
sg150
F2
sg151
g32
sg152
I01
sg153
F0
sg154
g362
sg155
I00
sg156
F100
sg157
(lp429
sg159
F0
sg160
I00
sg161
g369
sg163
S'03.png'
p430
sg165
g146
sg166
I01
sg167
F7
sg168
S'a60d13be-d489-11e8-b976-c038960d2073'
p431
sba(iclasses.clip
clip
p432
(dp433
g118
g119
sg120
I01
sg121
I00
sg122
(dp434
g124
(iclasses.keyframe
keyframe
p435
(dp436
g47
I0
sg48
F100
sg49
F100
sS'x'
F0
sS'y'
F0
sg50
F1
sg51
S'a704ed96-d489-11e8-b976-c038960d2073'
p437
sbsg128
(iclasses.keyframe
keyframe
p438
(dp439
g47
I-1
sg48
F100
sg49
F100
sS'x'
F0
sS'y'
F0
sg50
F1
sg51
S'a704ef30-d489-11e8-b976-c038960d2073'
p440
sbssg132
F2
sg133
I00
sg134
I00
sg135
F1
sg136
I01
sg137
F2
sg138
F99.880000000000038
sg139
F30.074999999999999
sg140
F714.95466417910461
sg141
I01
sg142
F2
sg143
F300
sg144
I00
sg145
g146
sg147
I00
sg148
I00
sg149
I00
sg150
F2
sg151
g32
sg152
I01
sg153
F0
sg154
g362
sg155
I00
sg156
F100
sg157
(lp441
sg159
F0
sg160
I00
sg161
g369
sg163
S'03.png'
p442
sg165
g146
sg166
I01
sg167
F7
sg168
S'a704e972-d489-11e8-b976-c038960d2073'
p443
sba(iclasses.clip
clip
p444
(dp445
g118
g119
sg120
I01
sg121
I00
sg122
(dp446
g124
(iclasses.keyframe
keyframe
p447
(dp448
g47
I0
sg48
F100
sg49
F100
sS'x'
F0
sS'y'
F0
sg50
F1
sg51
S'a9a94e20-d489-11e8-b976-c038960d2073'
p449
sbsg128
(iclasses.keyframe
keyframe
p450
(dp451
g47
I-1
sg48
F100
sg49
F100
sS'x'
F0
sS'y'
F0
sg50
F1
sg51
S'a9a94f38-d489-11e8-b976-c038960d2073'
p452
sbssg132
F2
sg133
I00
sg134
I00
sg135
F1
sg136
I01
sg137
F2
sg138
F106.88000000000004
sg139
F46.075000000000003
sg140
F665.4546641791045
sg141
I01
sg142
F2
sg143
F300
sg144
I00
sg145
g146
sg147
I00
sg148
I00
sg149
I00
sg150
F2
sg151
g32
sg152
I01
sg153
F0
sg154
g362
sg155
I00
sg156
F100
sg157
(lp453
sg159
F0
sg160
I00
sg161
g369
sg163
S'03.png'
p454
sg165
g146
sg166
I01
sg167
F7
sg168
S'a9a94b46-d489-11e8-b976-c038960d2073'
p455
sba(iclasses.clip
clip
p456
(dp457
g118
g119
sg120
I01
sg121
I00
sg122
(dp458
g124
(iclasses.keyframe
keyframe
p459
(dp460
g47
I0
sg48
F100
sg49
F100
sS'x'
F0
sS'y'
F0
sg50
F1
sg51
S'aadb8ff6-d489-11e8-b976-c038960d2073'
p461
sbsg128
(iclasses.keyframe
keyframe
p462
(dp463
g47
I-1
sg48
F100
sg49
F100
sS'x'
F0
sS'y'
F0
sg50
F1
sg51
S'aadb9118-d489-11e8-b976-c038960d2073'
p464
sbssg132
F2
sg133
I00
sg134
I00
sg135
F1
sg136
I01
sg137
F2
sg138
F113.88000000000004
sg139
F35.075000000000003
sg140
F559.9546641791045
sg141
I01
sg142
F2
sg143
F300
sg144
I00
sg145
g146
sg147
I00
sg148
I00
sg149
I00
sg150
F2
sg151
g32
sg152
I01
sg153
F0
sg154
g362
sg155
I00
sg156
F100
sg157
(lp465
sg159
F0
sg160
I00
sg161
g369
sg163
S'03.png'
p466
sg165
g146
sg166
I01
sg167
F7
sg168
S'aadb8d6c-d489-11e8-b976-c038960d2073'
p467
sba(iclasses.clip
clip
p468
(dp469
g118
g119
sg120
I01
sg121
I00
sg122
(dp470
g124
(iclasses.keyframe
keyframe
p471
(dp472
g47
I0
sg48
F100
sg49
F100
sS'x'
F0
sS'y'
F0
sg50
F1
sg51
S'ac17b82c-d489-11e8-b976-c038960d2073'
p473
sbsg128
(iclasses.keyframe
keyframe
p474
(dp475
g47
I-1
sg48
F100
sg49
F100
sS'x'
F0
sS'y'
F0
sg50
F1
sg51
S'ac17b94e-d489-11e8-b976-c038960d2073'
p476
sbssg132
F2
sg133
I00
sg134
I00
sg135
F1
sg136
I01
sg137
F2
sg138
F120.88000000000004
sg139
F23.074999999999999
sg140
F703.4546641791045
sg141
I01
sg142
F2
sg143
F300
sg144
I00
sg145
g146
sg147
I00
sg148
I00
sg149
I00
sg150
F2
sg151
g32
sg152
I01
sg153
F0
sg154
g362
sg155
I00
sg156
F100
sg157
(lp477
sg159
F0
sg160
I00
sg161
g369
sg163
S'03.png'
p478
sg165
g146
sg166
I01
sg167
F7
sg168
S'ac17b58e-d489-11e8-b976-c038960d2073'
p479
sba(iclasses.clip
clip
p480
(dp481
g118
g119
sg120
I01
sg121
I00
sg122
(dp482
g124
(iclasses.keyframe
keyframe
p483
(dp484
g47
I0
sg48
F100
sg49
F100
sS'x'
F0
sS'y'
F0
sg50
F1
sg51
S'ad810448-d489-11e8-b976-c038960d2073'
p485
sbsg128
(iclasses.keyframe
keyframe
p486
(dp487
g47
I-1
sg48
F100
sg49
F100
sS'x'
F0
sS'y'
F0
sg50
F1
sg51
S'ad810574-d489-11e8-b976-c038960d2073'
p488
sbssg132
F2
sg133
I00
sg134
I00
sg135
F1
sg136
I01
sg137
F2
sg138
F127.88000000000004
sg139
F33.075000000000003
sg140
F664.9546641791045
sg141
I01
sg142
F2
sg143
F300
sg144
I00
sg145
g146
sg147
I00
sg148
I00
sg149
I00
sg150
F2
sg151
g32
sg152
I01
sg153
F0
sg154
g362
sg155
I00
sg156
F100
sg157
(lp489
sg159
F0
sg160
I00
sg161
g369
sg163
S'03.png'
p490
sg165
g146
sg166
I01
sg167
F7
sg168
S'ad8101b4-d489-11e8-b976-c038960d2073'
p491
sba(iclasses.clip
clip
p492
(dp493
g118
g119
sg120
I01
sg121
I00
sg122
(dp494
g124
(iclasses.keyframe
keyframe
p495
(dp496
g47
I0
sg48
F100
sg49
F100
sS'x'
F0
sS'y'
F0
sg50
F1
sg51
S'af18c462-d489-11e8-b976-c038960d2073'
p497
sbsg128
(iclasses.keyframe
keyframe
p498
(dp499
g47
I-1
sg48
F100
sg49
F100
sS'x'
F0
sS'y'
F0
sg50
F1
sg51
S'af18c58e-d489-11e8-b976-c038960d2073'
p500
sbssg132
F2
sg133
I00
sg134
I00
sg135
F1
sg136
I01
sg137
F2
sg138
F134.88000000000002
sg139
F25.074999999999999
sg140
F832.45466417910461
sg141
I01
sg142
F2
sg143
F300
sg144
I00
sg145
g146
sg147
I00
sg148
I00
sg149
I00
sg150
F2
sg151
g32
sg152
I01
sg153
F0
sg154
g362
sg155
I00
sg156
F100
sg157
(lp501
sg159
F0
sg160
I00
sg161
g369
sg163
S'03.png'
p502
sg165
g146
sg166
I01
sg167
F7
sg168
S'af18c1d8-d489-11e8-b976-c038960d2073'
p503
sba(iclasses.clip
clip
p504
(dp505
g118
g119
sg120
I01
sg121
I00
sg122
(dp506
g124
(iclasses.keyframe
keyframe
p507
(dp508
g47
I0
sg48
F100
sg49
F100
sS'x'
F0
sS'y'
F0
sg50
F1
sg51
S'b059cf56-d489-11e8-b976-c038960d2073'
p509
sbsg128
(iclasses.keyframe
keyframe
p510
(dp511
g47
I-1
sg48
F100
sg49
F100
sS'x'
F0
sS'y'
F0
sg50
F1
sg51
S'b059d078-d489-11e8-b976-c038960d2073'
p512
sbssg132
F2
sg133
I00
sg134
I00
sg135
F1
sg136
I01
sg137
F2
sg138
F141.88000000000002
sg139
F29.074999999999999
sg140
F1096.9546641791044
sg141
I01
sg142
F2
sg143
F300
sg144
I00
sg145
g146
sg147
I00
sg148
I00
sg149
I00
sg150
F2
sg151
g32
sg152
I01
sg153
F0
sg154
g362
sg155
I00
sg156
F100
sg157
(lp513
sg159
F0
sg160
I00
sg161
g369
sg163
S'03.png'
p514
sg165
g146
sg166
I01
sg167
F7
sg168
S'b059cccc-d489-11e8-b976-c038960d2073'
p515
sba(iclasses.clip
clip
p516
(dp517
g118
g119
sg120
I00
sg121
I00
sg122
(dp518
g124
(iclasses.keyframe
keyframe
p519
(dp520
g47
I0
sg48
F100
sg49
F100
sS'x'
F0
sS'y'
F0
sg50
F1
sg51
S'b1af9c50-d489-11e8-b976-c038960d2073'
p521
sbsg128
(iclasses.keyframe
keyframe
p522
(dp523
g47
I-1
sg48
F100
sg49
F100
sS'x'
F0
sS'y'
F0
sg50
F1
sg51
S'b1af9d72-d489-11e8-b976-c038960d2073'
p524
sbssg132
F2
sg133
I00
sg134
I00
sg135
F1
sg136
I01
sg137
F2
sg138
F148.88000000000002
sg139
F36.075000000000003
sg140
F1895.6953358208953
sg141
I01
sg142
F2
sg143
F300
sg144
I00
sg145
g146
sg147
I00
sg148
I00
sg149
I00
sg150
F2
sg151
g32
sg152
I01
sg153
F0
sg154
g362
sg155
I00
sg156
F100
sg157
(lp525
sg159
F0
sg160
I00
sg161
g369
sg163
S'03.png'
p526
sg165
g146
sg166
I01
sg167
F3.7199999999999704
sg168
S'b1af99bc-d489-11e8-b976-c038960d2073'
p527
sba(iclasses.clip
clip
p528
(dp529
g118
g119
sg120
I00
sg121
I00
sg122
(dp530
g124
(iclasses.keyframe
keyframe
p531
(dp532
g47
I0
sg48
F100
sg49
F100
sS'x'
F0
sS'y'
F0
sg50
F1
sg51
S'50a8ad6a-d48a-11e8-b976-c038960d2073'
p533
sbsg128
(iclasses.keyframe
keyframe
p534
(dp535
g47
I-1
sg48
F100
sg49
F100
sS'x'
F0
sS'y'
F0
sg50
F1
sg51
S'50a8ae96-d48a-11e8-b976-c038960d2073'
p536
sbssg132
F2
sg133
I00
sg134
I00
sg135
F1
sg136
I01
sg137
F2
sg138
F152.566
sg139
F35.5
sg140
F1971.5
sg141
I01
sg142
F2
sg143
F300
sS'show_preview'
p537
I00
sg145
g146
sg147
I00
sg148
I00
sS'request_show_properties'
p538
I00
sg150
F2
sg151
g32
sg152
I01
sg153
F0
sg154
(iclasses.files
OpenShotFile
p539
(dp540
g82
F14999
sg83
S''
sg84
I0
sg85
S'/home/emi/Escritorio/thumbnail/d0608052-cf29-11e8-9c22-c038960d2073_png_1.png'
p541
sg87
S'/home/emi/Escritorio/Nuevas Tecnologias/1\xc2\xba Trimestre/big data presentacion/imagenes video/04.png'
p542
sg89
Nsg90
g91
sg92
I0
sg48
I1080
sg93
g1
sg49
I1920
sg94
F300
sg95
F29.970029970029969
sg96
I1
sg97
S''
sg98
(F29.970029970029969
I0
tp543
sg100
S''
sg51
S'd069d4cc-cf29-11e8-9c22-c038960d2073'
p544
sbsg155
I00
sg156
F100
sg157
(lp545
sg159
F0
sg160
I00
sg161
S'/home/emi/Escritorio/thumbnail/d0608052-cf29-11e8-9c22-c038960d2073_png_1.png'
p546
sg163
S'04.png'
p547
sg165
g146
sg166
I01
sg167
F7
sg168
S'50a8aad6-d48a-11e8-b976-c038960d2073'
p548
sba(iclasses.clip
clip
p549
(dp550
S'color'
p551
S'Gold'
p552
sS'moved'
p553
I00
sS'video_fade_out'
p554
I00
sS'keyframes'
p555
(dp556
S'start'
p557
(iclasses.keyframe
keyframe
p558
(dp559
g47
I0
sg48
F100
sg49
F100
sS'x'
F0
sS'y'
F0
sg50
F1
sg51
S'a58fe4c6-d497-11e8-9441-c038960d2073'
p560
sbsS'end'
p561
(iclasses.keyframe
keyframe
p562
(dp563
g47
I-1
sg48
F100
sg49
F100
sS'x'
F0
sS'y'
F0
sg50
F1
sg51
S'a58fe5e8-d497-11e8-9441-c038960d2073'
p564
sbssS'video_fade_out_amount'
p565
F2
sS'audio_fade_out'
p566
I00
sS'reversed'
p567
I00
sS'speed'
p568
F1
sS'fill'
p569
I01
sS'audio_fade_in_amount'
p570
F2
sS'position_on_track'
p571
F159.566
sS'drag_y'
p572
F0
sS'drag_x'
p573
F0
sS'play_audio'
p574
I01
sS'audio_fade_out_amount'
p575
F2
sS'max_length'
p576
F300
sS'valign'
p577
S'centre'
p578
sS'video_fade_in'
p579
I00
sS'audio_fade_in'
p580
I00
sS'video_fade_in_amount'
p581
F2
sS'parent'
p582
g32
sS'composite'
p583
I01
sS'start_time'
p584
F0
sS'file_object'
p585
g539
sS'distort'
p586
I00
sS'volume'
p587
F100
sS'effects'
p588
(lp589
sS'rotation'
p590
F0
sS'is_timeline_scrolling'
p591
I00
sS'thumb_location'
p592
S'/home/emi/Escritorio/thumbnail/d0608052-cf29-11e8-9c22-c038960d2073_png_1.png'
p593
sS'name'
p594
S'04.png'
p595
sS'halign'
p596
g578
sS'play_video'
p597
I01
sS'end_time'
p598
F7
sS'unique_id'
p599
S'a58fe23c-d497-11e8-9441-c038960d2073'
p600
sba(iclasses.clip
clip
p601
(dp602
g551
g552
sg553
I00
sg554
I00
sg555
(dp603
g557
(iclasses.keyframe
keyframe
p604
(dp605
g47
I0
sg48
F100
sg49
F100
sS'x'
F0
sS'y'
F0
sg50
F1
sg51
S'a6d22bbe-d497-11e8-9441-c038960d2073'
p606
sbsg561
(iclasses.keyframe
keyframe
p607
(dp608
g47
I-1
sg48
F100
sg49
F100
sS'x'
F0
sS'y'
F0
sg50
F1
sg51
S'a6d22ce0-d497-11e8-9441-c038960d2073'
p609
sbssg565
F2
sg566
I00
sg567
I00
sg568
F1
sg569
I01
sg570
F2
sg571
F166.56599999999997
sg572
F0
sg573
F0
sg574
I01
sg575
F2
sg576
F300
sg577
g578
sg579
I00
sg580
I00
sg581
F2
sg582
g32
sg583
I01
sg584
F0
sg585
g539
sg586
I00
sg587
F100
sg588
(lp610
sg590
F0
sg591
I00
sg592
g593
sg594
S'04.png'
p611
sg596
g578
sg597
I01
sg598
F7
sg599
S'a6d22934-d497-11e8-9441-c038960d2073'
p612
sba(iclasses.clip
clip
p613
(dp614
g551
g552
sg553
I01
sg554
I00
sg555
(dp615
g557
(iclasses.keyframe
keyframe
p616
(dp617
g47
I0
sg48
F100
sg49
F100
sS'x'
F0
sS'y'
F0
sg50
F1
sg51
S'a869d5b2-d497-11e8-9441-c038960d2073'
p618
sbsg561
(iclasses.keyframe
keyframe
p619
(dp620
g47
I-1
sg48
F100
sg49
F100
sS'x'
F0
sS'y'
F0
sg50
F1
sg51
S'a869d6d4-d497-11e8-9441-c038960d2073'
p621
sbssg565
F2
sg566
I00
sg567
I00
sg568
F1
sg569
I01
sg570
F2
sg571
F173.56599999999997
sg572
F44.075000000000003
sg573
F841.50000000000023
sg574
I01
sg575
F2
sg576
F300
sg537
I00
sg577
g578
sg579
I00
sg580
I00
sg538
I00
sg581
F2
sg582
g32
sg583
I01
sg584
F0
sg585
g539
sg586
I00
sg587
F100
sg588
(lp622
sg590
F0
sg591
I00
sg592
g593
sg594
S'04.png'
p623
sg596
g578
sg597
I01
sg598
F7
sg599
S'a869d328-d497-11e8-9441-c038960d2073'
p624
sba(iclasses.clip
clip
p625
(dp626
g551
g552
sg553
I00
sg554
I00
sg555
(dp627
g557
(iclasses.keyframe
keyframe
p628
(dp629
g47
I0
sg48
F100
sg49
F100
sS'x'
F0
sS'y'
F0
sg50
F1
sg51
S'ab2f511e-d497-11e8-9441-c038960d2073'
p630
sbsg561
(iclasses.keyframe
keyframe
p631
(dp632
g47
I-1
sg48
F100
sg49
F100
sS'x'
F0
sS'y'
F0
sg50
F1
sg51
S'ab2f533a-d497-11e8-9441-c038960d2073'
p633
sbssg565
F2
sg566
I00
sg567
I00
sg568
F1
sg569
I01
sg570
F2
sg571
F180.56599999999997
sg572
F0
sg573
F0
sg574
I01
sg575
F2
sg576
F300
sg577
g578
sg579
I00
sg580
I00
sg581
F2
sg582
g32
sg583
I01
sg584
F0
sg585
g539
sg586
I00
sg587
F100
sg588
(lp634
sg590
F0
sg591
I00
sg592
g593
sg594
S'04.png'
p635
sg596
g578
sg597
I01
sg598
F7
sg599
S'ab2f4d2c-d497-11e8-9441-c038960d2073'
p636
sba(iclasses.clip
clip
p637
(dp638
g551
g552
sg553
I00
sg554
I00
sg555
(dp639
g557
(iclasses.keyframe
keyframe
p640
(dp641
g47
I0
sg48
F100
sg49
F100
sS'x'
F0
sS'y'
F0
sg50
F1
sg51
S'aceca998-d497-11e8-9441-c038960d2073'
p642
sbsg561
(iclasses.keyframe
keyframe
p643
(dp644
g47
I-1
sg48
F100
sg49
F100
sS'x'
F0
sS'y'
F0
sg50
F1
sg51
S'acecaae2-d497-11e8-9441-c038960d2073'
p645
sbssg565
F2
sg566
I00
sg567
I00
sg568
F1
sg569
I01
sg570
F2
sg571
F187.56599999999997
sg572
F0
sg573
F0
sg574
I01
sg575
F2
sg576
F300
sg577
g578
sg579
I00
sg580
I00
sg581
F2
sg582
g32
sg583
I01
sg584
F0
sg585
g539
sg586
I00
sg587
F100
sg588
(lp646
sg590
F0
sg591
I00
sg592
g593
sg594
S'04.png'
p647
sg596
g578
sg597
I01
sg598
F7
sg599
S'aceca6d2-d497-11e8-9441-c038960d2073'
p648
sba(iclasses.clip
clip
p649
(dp650
g551
g552
sg553
I00
sg554
I00
sg555
(dp651
g557
(iclasses.keyframe
keyframe
p652
(dp653
g47
I0
sg48
F100
sg49
F100
sS'x'
F0
sS'y'
F0
sg50
F1
sg51
S'aef72290-d497-11e8-9441-c038960d2073'
p654
sbsg561
(iclasses.keyframe
keyframe
p655
(dp656
g47
I-1
sg48
F100
sg49
F100
sS'x'
F0
sS'y'
F0
sg50
F1
sg51
S'aef723b2-d497-11e8-9441-c038960d2073'
p657
sbssg565
F2
sg566
I00
sg567
I00
sg568
F1
sg569
I01
sg570
F2
sg571
F194.56599999999997
sg572
F0
sg573
F0
sg574
I01
sg575
F2
sg576
F300
sg577
g578
sg579
I00
sg580
I00
sg581
F2
sg582
g32
sg583
I01
sg584
F0
sg585
g539
sg586
I00
sg587
F100
sg588
(lp658
sg590
F0
sg591
I00
sg592
g593
sg594
S'04.png'
p659
sg596
g578
sg597
I01
sg598
F7
sg599
S'aef72006-d497-11e8-9441-c038960d2073'
p660
sba(iclasses.clip
clip
p661
(dp662
g551
g552
sg553
I00
sg554
I00
sg555
(dp663
g557
(iclasses.keyframe
keyframe
p664
(dp665
g47
I0
sg48
F100
sg49
F100
sS'x'
F0
sS'y'
F0
sg50
F1
sg51
S'b102d142-d497-11e8-9441-c038960d2073'
p666
sbsg561
(iclasses.keyframe
keyframe
p667
(dp668
g47
I-1
sg48
F100
sg49
F100
sS'x'
F0
sS'y'
F0
sg50
F1
sg51
S'b102d264-d497-11e8-9441-c038960d2073'
p669
sbssg565
F2
sg566
I00
sg567
I00
sg568
F1
sg569
I01
sg570
F2
sg571
F201.56599999999997
sg572
F0
sg573
F0
sg574
I01
sg575
F2
sg576
F300
sg577
g578
sg579
I00
sg580
I00
sg581
F2
sg582
g32
sg583
I01
sg584
F0
sg585
g539
sg586
I00
sg587
F100
sg588
(lp670
sg590
F0
sg591
I00
sg592
g593
sg594
S'04.png'
p671
sg596
g578
sg597
I01
sg598
F7
sg599
S'b102ceae-d497-11e8-9441-c038960d2073'
p672
sba(iclasses.clip
clip
p673
(dp674
g551
g552
sg553
I00
sg554
I00
sg555
(dp675
g557
(iclasses.keyframe
keyframe
p676
(dp677
g47
I0
sg48
F100
sg49
F100
sS'x'
F0
sS'y'
F0
sg50
F1
sg51
S'bb2c257e-d497-11e8-9441-c038960d2073'
p678
sbsg561
(iclasses.keyframe
keyframe
p679
(dp680
g47
I-1
sg48
F100
sg49
F100
sS'x'
F0
sS'y'
F0
sg50
F1
sg51
S'bb2c26a0-d497-11e8-9441-c038960d2073'
p681
sbssg565
F2
sg566
I00
sg567
I00
sg568
F1
sg569
I01
sg570
F2
sg571
F208.56599999999997
sg572
F47.5
sg573
F5293.5
sg574
I01
sg575
F2
sg576
F300
sS'show_preview'
p682
I00
sg577
g578
sg579
I00
sg580
I00
sS'request_show_properties'
p683
I00
sg581
F2
sg582
g32
sg583
I01
sg584
F0
sg585
(iclasses.files
OpenShotFile
p684
(dp685
g82
F14999
sg83
S''
sg84
I0
sg85
S'/home/emi/Escritorio/thumbnail/d0540bec-cf29-11e8-9c22-c038960d2073_png_1.png'
p686
sg87
S'/home/emi/Escritorio/Nuevas Tecnologias/1\xc2\xba Trimestre/big data presentacion/imagenes video/05.png'
p687
sg89
Nsg90
g91
sg92
I0
sg48
I1080
sg93
g1
sg49
I1920
sg94
F300
sg95
F29.970029970029969
sg96
I1
sg97
S''
sg98
(F29.970029970029969
I0
tp688
sg100
S''
sg51
S'd0602e90-cf29-11e8-9c22-c038960d2073'
p689
sbsg586
I00
sg587
F100
sg588
(lp690
sg590
F0
sg591
I00
sg592
S'/home/emi/Escritorio/thumbnail/d0540bec-cf29-11e8-9c22-c038960d2073_png_1.png'
p691
sg594
S'05.png'
p692
sg596
g578
sg597
I01
sg598
F7
sg599
S'bb2c231c-d497-11e8-9441-c038960d2073'
p693
sba(iclasses.clip
clip
p694
(dp695
S'color'
p696
S'Gold'
p697
sS'moved'
p698
I00
sS'video_fade_out'
p699
I00
sS'keyframes'
p700
(dp701
S'start'
p702
(iclasses.keyframe
keyframe
p703
(dp704
g47
I0
sg48
F100
sg49
F100
sS'x'
F0
sS'y'
F0
sg50
F1
sg51
S'f6c20136-d49b-11e8-a739-c038960d2073'
p705
sbsS'end'
p706
(iclasses.keyframe
keyframe
p707
(dp708
g47
I-1
sg48
F100
sg49
F100
sS'x'
F0
sS'y'
F0
sg50
F1
sg51
S'f6c2026c-d49b-11e8-a739-c038960d2073'
p709
sbssS'video_fade_out_amount'
p710
F2
sS'audio_fade_out'
p711
I00
sS'reversed'
p712
I00
sS'speed'
p713
F1
sS'fill'
p714
I01
sS'audio_fade_in_amount'
p715
F2
sS'position_on_track'
p716
F215.56599999999997
sS'drag_y'
p717
F0
sS'drag_x'
p718
F0
sS'play_audio'
p719
I01
sS'audio_fade_out_amount'
p720
F2
sS'max_length'
p721
F300
sS'valign'
p722
S'centre'
p723
sS'video_fade_in'
p724
I00
sS'audio_fade_in'
p725
I00
sS'video_fade_in_amount'
p726
F2
sS'parent'
p727
g32
sS'composite'
p728
I01
sS'start_time'
p729
F0
sS'file_object'
p730
g684
sS'distort'
p731
I00
sS'volume'
p732
F100
sS'effects'
p733
(lp734
sS'rotation'
p735
F0
sS'is_timeline_scrolling'
p736
I00
sS'thumb_location'
p737
S'/home/emi/Escritorio/thumbnail/d0540bec-cf29-11e8-9c22-c038960d2073_png_1.png'
p738
sS'name'
p739
S'05.png'
p740
sS'halign'
p741
g723
sS'play_video'
p742
I01
sS'end_time'
p743
F7
sS'unique_id'
p744
S'f6c1fe8e-d49b-11e8-a739-c038960d2073'
p745
sba(iclasses.clip
clip
p746
(dp747
g696
g697
sg698
I00
sg699
I00
sg700
(dp748
g702
(iclasses.keyframe
keyframe
p749
(dp750
g47
I0
sg48
F100
sg49
F100
sS'x'
F0
sS'y'
F0
sg50
F1
sg51
S'f9fde52c-d49b-11e8-a739-c038960d2073'
p751
sbsg706
(iclasses.keyframe
keyframe
p752
(dp753
g47
I-1
sg48
F100
sg49
F100
sS'x'
F0
sS'y'
F0
sg50
F1
sg51
S'f9fde680-d49b-11e8-a739-c038960d2073'
p754
sbssg710
F2
sg711
I00
sg712
I00
sg713
F1
sg714
I01
sg715
F2
sg716
F222.566
sg717
F0
sg718
F0
sg719
I01
sg720
F2
sg721
F300
sg722
g723
sg724
I00
sg725
I00
sg726
F2
sg727
g32
sg728
I01
sg729
F0
sg730
g684
sg731
I00
sg732
F100
sg733
(lp755
sg735
F0
sg736
I00
sg737
g738
sg739
S'05.png'
p756
sg741
g723
sg742
I01
sg743
F7
sg744
S'f9fde248-d49b-11e8-a739-c038960d2073'
p757
sba(iclasses.clip
clip
p758
(dp759
g696
g697
sg698
I00
sg699
I00
sg700
(dp760
g702
(iclasses.keyframe
keyframe
p761
(dp762
g47
I0
sg48
F100
sg49
F100
sS'x'
F0
sS'y'
F0
sg50
F1
sg51
S'fb4fb194-d49b-11e8-a739-c038960d2073'
p763
sbsg706
(iclasses.keyframe
keyframe
p764
(dp765
g47
I-1
sg48
F100
sg49
F100
sS'x'
F0
sS'y'
F0
sg50
F1
sg51
S'fb4fb2c0-d49b-11e8-a739-c038960d2073'
p766
sbssg710
F2
sg711
I00
sg712
I00
sg713
F1
sg714
I01
sg715
F2
sg716
F229.566
sg717
F0
sg718
F0
sg719
I01
sg720
F2
sg721
F300
sg722
g723
sg724
I00
sg725
I00
sg726
F2
sg727
g32
sg728
I01
sg729
F0
sg730
g684
sg731
I00
sg732
F100
sg733
(lp767
sg735
F0
sg736
I00
sg737
g738
sg739
S'05.png'
p768
sg741
g723
sg742
I01
sg743
F7
sg744
S'fb4faef6-d49b-11e8-a739-c038960d2073'
p769
sba(iclasses.clip
clip
p770
(dp771
g696
g697
sg698
I00
sg699
I00
sg700
(dp772
g702
(iclasses.keyframe
keyframe
p773
(dp774
g47
I0
sg48
F100
sg49
F100
sS'x'
F0
sS'y'
F0
sg50
F1
sg51
S'0d5fc0ae-d49c-11e8-a739-c038960d2073'
p775
sbsg706
(iclasses.keyframe
keyframe
p776
(dp777
g47
I-1
sg48
F100
sg49
F100
sS'x'
F0
sS'y'
F0
sg50
F1
sg51
S'0d5fc1da-d49c-11e8-a739-c038960d2073'
p778
sbssg710
F2
sg711
I00
sg712
I00
sg713
F1
sg714
I01
sg715
F2
sg716
F236.566
sg717
F0
sg718
F0
sg719
I01
sg720
F2
sg721
F300
sg722
g723
sg724
I00
sg725
I00
sg726
F2
sg727
g32
sg728
I01
sg729
F0
sg730
g684
sg731
I00
sg732
F100
sg733
(lp779
sg735
F0
sg736
I00
sg737
g738
sg739
S'05.png'
p780
sg741
g723
sg742
I01
sg743
F7
sg744
S'0d5fbe1a-d49c-11e8-a739-c038960d2073'
p781
sba(iclasses.clip
clip
p782
(dp783
g696
g697
sg698
I00
sg699
I00
sg700
(dp784
g702
(iclasses.keyframe
keyframe
p785
(dp786
g47
I0
sg48
F100
sg49
F100
sS'x'
F0
sS'y'
F0
sg50
F1
sg51
S'0ef0280a-d49c-11e8-a739-c038960d2073'
p787
sbsg706
(iclasses.keyframe
keyframe
p788
(dp789
g47
I-1
sg48
F100
sg49
F100
sS'x'
F0
sS'y'
F0
sg50
F1
sg51
S'0ef02936-d49c-11e8-a739-c038960d2073'
p790
sbssg710
F2
sg711
I00
sg712
I00
sg713
F1
sg714
I01
sg715
F2
sg716
F243.56600000000003
sg717
F0
sg718
F0
sg719
I01
sg720
F2
sg721
F300
sg722
g723
sg724
I00
sg725
I00
sg726
F2
sg727
g32
sg728
I01
sg729
F0
sg730
g684
sg731
I00
sg732
F100
sg733
(lp791
sg735
F0
sg736
I00
sg737
g738
sg739
S'05.png'
p792
sg741
g723
sg742
I01
sg743
F7
sg744
S'0ef02580-d49c-11e8-a739-c038960d2073'
p793
sba(iclasses.clip
clip
p794
(dp795
g696
g697
sg698
I00
sg699
I00
sg700
(dp796
g702
(iclasses.keyframe
keyframe
p797
(dp798
g47
I0
sg48
F100
sg49
F100
sS'x'
F0
sS'y'
F0
sg50
F1
sg51
S'104a73c2-d49c-11e8-a739-c038960d2073'
p799
sbsg706
(iclasses.keyframe
keyframe
p800
(dp801
g47
I-1
sg48
F100
sg49
F100
sS'x'
F0
sS'y'
F0
sg50
F1
sg51
S'104a74e4-d49c-11e8-a739-c038960d2073'
p802
sbssg710
F2
sg711
I00
sg712
I00
sg713
F1
sg714
I01
sg715
F2
sg716
F250.56600000000006
sg717
F0
sg718
F0
sg719
I01
sg720
F2
sg721
F300
sg722
g723
sg724
I00
sg725
I00
sg726
F2
sg727
g32
sg728
I01
sg729
F0
sg730
g684
sg731
I00
sg732
F100
sg733
(lp803
sg735
F0
sg736
I00
sg737
g738
sg739
S'05.png'
p804
sg741
g723
sg742
I01
sg743
F7
sg744
S'104a70ca-d49c-11e8-a739-c038960d2073'
p805
sba(iclasses.clip
clip
p806
(dp807
g696
g697
sg698
I00
sg699
I00
sg700
(dp808
g702
(iclasses.keyframe
keyframe
p809
(dp810
g47
I0
sg48
F100
sg49
F100
sS'x'
F0
sS'y'
F0
sg50
F1
sg51
S'13644722-d49c-11e8-a739-c038960d2073'
p811
sbsg706
(iclasses.keyframe
keyframe
p812
(dp813
g47
I-1
sg48
F100
sg49
F100
sS'x'
F0
sS'y'
F0
sg50
F1
sg51
S'13644876-d49c-11e8-a739-c038960d2073'
p814
sbssg710
F2
sg711
I00
sg712
I00
sg713
F1
sg714
I01
sg715
F2
sg716
F257.56600000000014
sg717
F0
sg718
F0
sg719
I01
sg720
F2
sg721
F300
sg722
g723
sg724
I00
sg725
I00
sg726
F2
sg727
g32
sg728
I01
sg729
F0
sg730
g684
sg731
I00
sg732
F100
sg733
(lp815
sg735
F0
sg736
I00
sg737
g738
sg739
S'05.png'
p816
sg741
g723
sg742
I01
sg743
F7
sg744
S'1364447a-d49c-11e8-a739-c038960d2073'
p817
sba(iclasses.clip
clip
p818
(dp819
g696
g697
sg698
I00
sg699
I00
sg700
(dp820
g702
(iclasses.keyframe
keyframe
p821
(dp822
g47
I0
sg48
F100
sg49
F100
sS'x'
F0
sS'y'
F0
sg50
F1
sg51
S'14e39c10-d49c-11e8-a739-c038960d2073'
p823
sbsg706
(iclasses.keyframe
keyframe
p824
(dp825
g47
I-1
sg48
F100
sg49
F100
sS'x'
F0
sS'y'
F0
sg50
F1
sg51
S'14e39d32-d49c-11e8-a739-c038960d2073'
p826
sbssg710
F2
sg711
I00
sg712
I00
sg713
F1
sg714
I01
sg715
F2
sg716
F264.56600000000014
sg717
F0
sg718
F0
sg719
I01
sg720
F2
sg721
F300
sg722
g723
sg724
I00
sg725
I00
sg726
F2
sg727
g32
sg728
I01
sg729
F0
sg730
g684
sg731
I00
sg732
F100
sg733
(lp827
sg735
F0
sg736
I00
sg737
g738
sg739
S'05.png'
p828
sg741
g723
sg742
I01
sg743
F7
sg744
S'14e3997c-d49c-11e8-a739-c038960d2073'
p829
sba(iclasses.clip
clip
p830
(dp831
g696
g697
sg698
I00
sg699
I00
sg700
(dp832
g702
(iclasses.keyframe
keyframe
p833
(dp834
g47
I0
sg48
F100
sg49
F100
sS'x'
F0
sS'y'
F0
sg50
F1
sg51
S'163a9758-d49c-11e8-a739-c038960d2073'
p835
sbsg706
(iclasses.keyframe
keyframe
p836
(dp837
g47
I-1
sg48
F100
sg49
F100
sS'x'
F0
sS'y'
F0
sg50
F1
sg51
S'163a98ca-d49c-11e8-a739-c038960d2073'
p838
sbssg710
F2
sg711
I00
sg712
I00
sg713
F1
sg714
I01
sg715
F2
sg716
F271.56600000000014
sg717
F0
sg718
F0
sg719
I01
sg720
F2
sg721
F300
sg722
g723
sg724
I00
sg725
I00
sg726
F2
sg727
g32
sg728
I01
sg729
F0
sg730
g684
sg731
I00
sg732
F100
sg733
(lp839
sg735
F0
sg736
I00
sg737
g738
sg739
S'05.png'
p840
sg741
g723
sg742
I01
sg743
F7
sg744
S'163a947e-d49c-11e8-a739-c038960d2073'
p841
sba(iclasses.clip
clip
p842
(dp843
g696
g697
sg698
I00
sg699
I00
sg700
(dp844
g702
(iclasses.keyframe
keyframe
p845
(dp846
g47
I0
sg48
F100
sg49
F100
sS'x'
F0
sS'y'
F0
sg50
F1
sg51
S'17c26e20-d49c-11e8-a739-c038960d2073'
p847
sbsg706
(iclasses.keyframe
keyframe
p848
(dp849
g47
I-1
sg48
F100
sg49
F100
sS'x'
F0
sS'y'
F0
sg50
F1
sg51
S'17c26f60-d49c-11e8-a739-c038960d2073'
p850
sbssg710
F2
sg711
I00
sg712
I00
sg713
F1
sg714
I01
sg715
F2
sg716
F278.5660000000002
sg717
F0
sg718
F0
sg719
I01
sg720
F2
sg721
F300
sg722
g723
sg724
I00
sg725
I00
sg726
F2
sg727
g32
sg728
I01
sg729
F0
sg730
g684
sg731
I00
sg732
F100
sg733
(lp851
sg735
F0
sg736
I00
sg737
g738
sg739
S'05.png'
p852
sg741
g723
sg742
I01
sg743
F7
sg744
S'17c26b5a-d49c-11e8-a739-c038960d2073'
p853
sba(iclasses.clip
clip
p854
(dp855
g696
g697
sg698
I01
sg699
I00
sg700
(dp856
g702
(iclasses.keyframe
keyframe
p857
(dp858
g47
I0
sg48
F100
sg49
F100
sS'x'
F0
sS'y'
F0
sg50
F1
sg51
S'18e632d2-d49c-11e8-a739-c038960d2073'
p859
sbsg706
(iclasses.keyframe
keyframe
p860
(dp861
g47
I-1
sg48
F100
sg49
F100
sS'x'
F0
sS'y'
F0
sg50
F1
sg51
S'18e6341c-d49c-11e8-a739-c038960d2073'
p862
sbssg710
F2
sg711
I00
sg712
I00
sg713
F1
sg714
I01
sg715
F2
sg716
F285.5660000000002
sg717
F26.074999999999999
sg718
F833.27499999999861
sg719
I01
sg720
F2
sg721
F300
sg682
I00
sg722
g723
sg724
I00
sg725
I00
sg683
I00
sg726
F2
sg727
g32
sg728
I01
sg729
F0
sg730
g684
sg731
I00
sg732
F100
sg733
(lp863
sg735
F0
sg736
I00
sg737
g738
sg739
S'05.png'
p864
sg741
g723
sg742
I01
sg743
F7
sg744
S'18e63016-d49c-11e8-a739-c038960d2073'
p865
sba(iclasses.clip
clip
p866
(dp867
g696
g697
sg698
I00
sg699
I00
sg700
(dp868
g702
(iclasses.keyframe
keyframe
p869
(dp870
g47
I0
sg48
F100
sg49
F100
sS'x'
F0
sS'y'
F0
sg50
F1
sg51
S'1c66347a-d49c-11e8-a739-c038960d2073'
p871
sbsg706
(iclasses.keyframe
keyframe
p872
(dp873
g47
I-1
sg48
F100
sg49
F100
sS'x'
F0
sS'y'
F0
sg50
F1
sg51
S'1c6635ba-d49c-11e8-a739-c038960d2073'
p874
sbssg710
F2
sg711
I00
sg712
I00
sg713
F1
sg714
I01
sg715
F2
sg716
F292.5660000000002
sg717
F0
sg718
F0
sg719
I01
sg720
F2
sg721
F300
sg722
g723
sg724
I00
sg725
I00
sg726
F2
sg727
g32
sg728
I01
sg729
F0
sg730
g684
sg731
I00
sg732
F100
sg733
(lp875
sg735
F0
sg736
I00
sg737
g738
sg739
S'05.png'
p876
sg741
g723
sg742
I01
sg743
F7
sg744
S'1c6631be-d49c-11e8-a739-c038960d2073'
p877
sba(iclasses.clip
clip
p878
(dp879
g696
g697
sg698
I00
sg699
I00
sg700
(dp880
g702
(iclasses.keyframe
keyframe
p881
(dp882
g47
I0
sg48
F100
sg49
F100
sS'x'
F0
sS'y'
F0
sg50
F1
sg51
S'1e360a8c-d49c-11e8-a739-c038960d2073'
p883
sbsg706
(iclasses.keyframe
keyframe
p884
(dp885
g47
I-1
sg48
F100
sg49
F100
sS'x'
F0
sS'y'
F0
sg50
F1
sg51
S'1e360bf4-d49c-11e8-a739-c038960d2073'
p886
sbssg710
F2
sg711
I00
sg712
I00
sg713
F1
sg714
I01
sg715
F2
sg716
F299.56600000000026
sg717
F0
sg718
F0
sg719
I01
sg720
F2
sg721
F300
sg722
g723
sg724
I00
sg725
I00
sg726
F2
sg727
g32
sg728
I01
sg729
F0
sg730
g684
sg731
I00
sg732
F100
sg733
(lp887
sg735
F0
sg736
I00
sg737
g738
sg739
S'05.png'
p888
sg741
g723
sg742
I01
sg743
F7
sg744
S'1e3607b2-d49c-11e8-a739-c038960d2073'
p889
sba(iclasses.clip
clip
p890
(dp891
g696
g697
sg698
I00
sg699
I00
sg700
(dp892
g702
(iclasses.keyframe
keyframe
p893
(dp894
g47
I0
sg48
F100
sg49
F100
sS'x'
F0
sS'y'
F0
sg50
F1
sg51
S'1fd8c4ce-d49c-11e8-a739-c038960d2073'
p895
sbsg706
(iclasses.keyframe
keyframe
p896
(dp897
g47
I-1
sg48
F100
sg49
F100
sS'x'
F0
sS'y'
F0
sg50
F1
sg51
S'1fd8c618-d49c-11e8-a739-c038960d2073'
p898
sbssg710
F2
sg711
I00
sg712
I00
sg713
F1
sg714
I01
sg715
F2
sg716
F306.56600000000032
sg717
F0
sg718
F0
sg719
I01
sg720
F2
sg721
F300
sg722
g723
sg724
I00
sg725
I00
sg726
F2
sg727
g32
sg728
I01
sg729
F0
sg730
g684
sg731
I00
sg732
F100
sg733
(lp899
sg735
F0
sg736
I00
sg737
g738
sg739
S'05.png'
p900
sg741
g723
sg742
I01
sg743
F7
sg744
S'1fd8c212-d49c-11e8-a739-c038960d2073'
p901
sba(iclasses.clip
clip
p902
(dp903
g696
g697
sg698
I00
sg699
I00
sg700
(dp904
g702
(iclasses.keyframe
keyframe
p905
(dp906
g47
I0
sg48
F100
sg49
F100
sS'x'
F0
sS'y'
F0
sg50
F1
sg51
S'21b4f308-d49c-11e8-a739-c038960d2073'
p907
sbsg706
(iclasses.keyframe
keyframe
p908
(dp909
g47
I-1
sg48
F100
sg49
F100
sS'x'
F0
sS'y'
F0
sg50
F1
sg51
S'21b4f4f2-d49c-11e8-a739-c038960d2073'
p910
sbssg710
F2
sg711
I00
sg712
I00
sg713
F1
sg714
I01
sg715
F2
sg716
F313.56600000000037
sg717
F0
sg718
F0
sg719
I01
sg720
F2
sg721
F300
sg722
g723
sg724
I00
sg725
I00
sg726
F2
sg727
g32
sg728
I01
sg729
F0
sg730
g684
sg731
I00
sg732
F100
sg733
(lp911
sg735
F0
sg736
I00
sg737
g738
sg739
S'05.png'
p912
sg741
g723
sg742
I01
sg743
F7
sg744
S'21b4ef20-d49c-11e8-a739-c038960d2073'
p913
sba(iclasses.clip
clip
p914
(dp915
g696
g697
sg698
I01
sg699
I00
sg700
(dp916
g702
(iclasses.keyframe
keyframe
p917
(dp918
g47
I0
sg48
F100
sg49
F100
sS'x'
F0
sS'y'
F0
sg50
F1
sg51
S'234c8eba-d49c-11e8-a739-c038960d2073'
p919
sbsg706
(iclasses.keyframe
keyframe
p920
(dp921
g47
I-1
sg48
F100
sg49
F100
sS'x'
F0
sS'y'
F0
sg50
F1
sg51
S'234c8ffa-d49c-11e8-a739-c038960d2073'
p922
sbssg710
F2
sg711
I00
sg712
I00
sg713
F1
sg714
I01
sg715
F2
sg716
F320.56600000000032
sg717
F23.074999999999999
sg718
F1060.3926470588212
sg719
I01
sg720
F2
sg721
F300
sg682
I00
sg722
g723
sg724
I00
sg725
I00
sg683
I00
sg726
F2
sg727
g32
sg728
I01
sg729
F0
sg730
g684
sg731
I00
sg732
F100
sg733
(lp923
sg735
F0
sg736
I00
sg737
g738
sg739
S'05.png'
p924
sg741
g723
sg742
I01
sg743
F7
sg744
S'234c8bf4-d49c-11e8-a739-c038960d2073'
p925
sba(iclasses.clip
clip
p926
(dp927
g696
g697
sg698
I00
sg699
I00
sg700
(dp928
g702
(iclasses.keyframe
keyframe
p929
(dp930
g47
I0
sg48
F100
sg49
F100
sS'x'
F0
sS'y'
F0
sg50
F1
sg51
S'268f891a-d49c-11e8-a739-c038960d2073'
p931
sbsg706
(iclasses.keyframe
keyframe
p932
(dp933
g47
I-1
sg48
F100
sg49
F100
sS'x'
F0
sS'y'
F0
sg50
F1
sg51
S'268f8a6e-d49c-11e8-a739-c038960d2073'
p934
sbssg710
F2
sg711
I00
sg712
I00
sg713
F1
sg714
I01
sg715
F2
sg716
F327.56600000000032
sg717
F0
sg718
F0
sg719
I01
sg720
F2
sg721
F300
sg722
g723
sg724
I00
sg725
I00
sg726
F2
sg727
g32
sg728
I01
sg729
F0
sg730
g684
sg731
I00
sg732
F100
sg733
(lp935
sg735
F0
sg736
I00
sg737
g738
sg739
S'05.png'
p936
sg741
g723
sg742
I01
sg743
F7
sg744
S'268f865e-d49c-11e8-a739-c038960d2073'
p937
sba(iclasses.clip
clip
p938
(dp939
g696
g697
sg698
I00
sg699
I00
sg700
(dp940
g702
(iclasses.keyframe
keyframe
p941
(dp942
g47
I0
sg48
F100
sg49
F100
sS'x'
F0
sS'y'
F0
sg50
F1
sg51
S'28624e62-d49c-11e8-a739-c038960d2073'
p943
sbsg706
(iclasses.keyframe
keyframe
p944
(dp945
g47
I-1
sg48
F100
sg49
F100
sS'x'
F0
sS'y'
F0
sg50
F1
sg51
S'28624fa2-d49c-11e8-a739-c038960d2073'
p946
sbssg710
F2
sg711
I00
sg712
I00
sg713
F1
sg714
I01
sg715
F2
sg716
F334.56600000000037
sg717
F0
sg718
F0
sg719
I01
sg720
F2
sg721
F300
sg722
g723
sg724
I00
sg725
I00
sg726
F2
sg727
g32
sg728
I01
sg729
F0
sg730
g684
sg731
I00
sg732
F100
sg733
(lp947
sg735
F0
sg736
I00
sg737
g738
sg739
S'05.png'
p948
sg741
g723
sg742
I01
sg743
F7
sg744
S'28624bba-d49c-11e8-a739-c038960d2073'
p949
sba(iclasses.clip
clip
p950
(dp951
g696
g697
sg698
I00
sg699
I00
sg700
(dp952
g702
(iclasses.keyframe
keyframe
p953
(dp954
g47
I0
sg48
F100
sg49
F100
sS'x'
F0
sS'y'
F0
sg50
F1
sg51
S'2a2e964c-d49c-11e8-a739-c038960d2073'
p955
sbsg706
(iclasses.keyframe
keyframe
p956
(dp957
g47
I-1
sg48
F100
sg49
F100
sS'x'
F0
sS'y'
F0
sg50
F1
sg51
S'2a2e978c-d49c-11e8-a739-c038960d2073'
p958
sbssg710
F2
sg711
I00
sg712
I00
sg713
F1
sg714
I01
sg715
F2
sg716
F341.56600000000043
sg717
F0
sg718
F0
sg719
I01
sg720
F2
sg721
F300
sg722
g723
sg724
I00
sg725
I00
sg726
F2
sg727
g32
sg728
I01
sg729
F0
sg730
g684
sg731
I00
sg732
F100
sg733
(lp959
sg735
F0
sg736
I00
sg737
g738
sg739
S'05.png'
p960
sg741
g723
sg742
I01
sg743
F7
sg744
S'2a2e93d6-d49c-11e8-a739-c038960d2073'
p961
sba(iclasses.clip
clip
p962
(dp963
g696
g697
sg698
I00
sg699
I00
sg700
(dp964
g702
(iclasses.keyframe
keyframe
p965
(dp966
g47
I0
sg48
F100
sg49
F100
sS'x'
F0
sS'y'
F0
sg50
F1
sg51
S'2c0f08f2-d49c-11e8-a739-c038960d2073'
p967
sbsg706
(iclasses.keyframe
keyframe
p968
(dp969
g47
I-1
sg48
F100
sg49
F100
sS'x'
F0
sS'y'
F0
sg50
F1
sg51
S'2c0f0aa0-d49c-11e8-a739-c038960d2073'
p970
sbssg710
F2
sg711
I00
sg712
I00
sg713
F1
sg714
I01
sg715
F2
sg716
F348.56600000000037
sg717
F0
sg718
F0
sg719
I01
sg720
F2
sg721
F300
sg722
g723
sg724
I00
sg725
I00
sg726
F2
sg727
g32
sg728
I01
sg729
F0
sg730
g684
sg731
I00
sg732
F100
sg733
(lp971
sg735
F0
sg736
I00
sg737
g738
sg739
S'05.png'
p972
sg741
g723
sg742
I01
sg743
F7
sg744
S'2c0f051e-d49c-11e8-a739-c038960d2073'
p973
sba(iclasses.clip
clip
p974
(dp975
g696
g697
sg698
I00
sg699
I00
sg700
(dp976
g702
(iclasses.keyframe
keyframe
p977
(dp978
g47
I0
sg48
F100
sg49
F100
sS'x'
F0
sS'y'
F0
sg50
F1
sg51
S'2e62ac44-d49c-11e8-a739-c038960d2073'
p979
sbsg706
(iclasses.keyframe
keyframe
p980
(dp981
g47
I-1
sg48
F100
sg49
F100
sS'x'
F0
sS'y'
F0
sg50
F1
sg51
S'2e62ada2-d49c-11e8-a739-c038960d2073'
p982
sbssg710
F2
sg711
I00
sg712
I00
sg713
F1
sg714
I01
sg715
F2
sg716
F355.56600000000037
sg717
F0
sg718
F0
sg719
I01
sg720
F2
sg721
F300
sg722
g723
sg724
I00
sg725
I00
sg726
F2
sg727
g32
sg728
I01
sg729
F0
sg730
g684
sg731
I00
sg732
F100
sg733
(lp983
sg735
F0
sg736
I00
sg737
g738
sg739
S'05.png'
p984
sg741
g723
sg742
I01
sg743
F7
sg744
S'2e62a988-d49c-11e8-a739-c038960d2073'
p985
sba(iclasses.clip
clip
p986
(dp987
g696
g697
sg698
I00
sg699
I00
sg700
(dp988
g702
(iclasses.keyframe
keyframe
p989
(dp990
g47
I0
sg48
F100
sg49
F100
sS'x'
F0
sS'y'
F0
sg50
F1
sg51
S'304c31d8-d49c-11e8-a739-c038960d2073'
p991
sbsg706
(iclasses.keyframe
keyframe
p992
(dp993
g47
I-1
sg48
F100
sg49
F100
sS'x'
F0
sS'y'
F0
sg50
F1
sg51
S'304c3322-d49c-11e8-a739-c038960d2073'
p994
sbssg710
F2
sg711
I00
sg712
I00
sg713
F1
sg714
I01
sg715
F2
sg716
F362.56600000000032
sg717
F0
sg718
F0
sg719
I01
sg720
F2
sg721
F300
sg722
g723
sg724
I00
sg725
I00
sg726
F2
sg727
g32
sg728
I01
sg729
F0
sg730
g684
sg731
I00
sg732
F100
sg733
(lp995
sg735
F0
sg736
I00
sg737
g738
sg739
S'05.png'
p996
sg741
g723
sg742
I01
sg743
F7
sg744
S'304c2f30-d49c-11e8-a739-c038960d2073'
p997
sba(iclasses.clip
clip
p998
(dp999
g696
g697
sg698
I00
sg699
I00
sg700
(dp1000
g702
(iclasses.keyframe
keyframe
p1001
(dp1002
g47
I0
sg48
F100
sg49
F100
sS'x'
F0
sS'y'
F0
sg50
F1
sg51
S'9382841c-d49e-11e8-a739-c038960d2073'
p1003
sbsg706
(iclasses.keyframe
keyframe
p1004
(dp1005
g47
I-1
sg48
F100
sg49
F100
sS'x'
F0
sS'y'
F0
sg50
F1
sg51
S'938284f8-d49e-11e8-a739-c038960d2073'
p1006
sbssg710
F2
sg711
I00
sg712
I00
sg713
F1
sg714
I01
sg715
F2
sg716
F369.56600000000032
sg717
F0
sg718
F0
sg719
I01
sg720
F2
sg721
F300
sg722
g723
sg724
I00
sg725
I00
sg726
F2
sg727
g32
sg728
I01
sg729
F0
sg730
(iclasses.files
OpenShotFile
p1007
(dp1008
g82
F14999
sg83
S''
sg84
I0
sg85
S'/home/emi/Escritorio/thumbnail/d0486242-cf29-11e8-9c22-c038960d2073_png_1.png'
p1009
sg87
S'/home/emi/Escritorio/Nuevas Tecnologias/1\xc2\xba Trimestre/big data presentacion/imagenes video/06.png'
p1010
sg89
Nsg90
g91
sg92
I0
sg48
I1080
sg93
g1
sg49
I1920
sg94
F300
sg95
F29.970029970029969
sg96
I1
sg97
S''
sg98
(F29.970029970029969
I0
tp1011
sg100
S''
sg51
S'd053b8c2-cf29-11e8-9c22-c038960d2073'
p1012
sbsg731
I00
sg732
F100
sg733
(lp1013
sg735
F0
sg736
I00
sg737
S'/home/emi/Escritorio/thumbnail/d0486242-cf29-11e8-9c22-c038960d2073_png_1.png'
p1014
sg739
S'06.png'
p1015
sg741
g723
sg742
I01
sg743
F7
sg744
S'938281f6-d49e-11e8-a739-c038960d2073'
p1016
sba(iclasses.clip
clip
p1017
(dp1018
g696
g697
sg698
I01
sg699
I00
sg700
(dp1019
g702
(iclasses.keyframe
keyframe
p1020
(dp1021
g47
I0
sg48
F100
sg49
F100
sS'x'
F0
sS'y'
F0
sg50
F1
sg51
S'95ef8218-d49e-11e8-a739-c038960d2073'
p1022
sbsg706
(iclasses.keyframe
keyframe
p1023
(dp1024
g47
I-1
sg48
F100
sg49
F100
sS'x'
F0
sS'y'
F0
sg50
F1
sg51
S'95ef834e-d49e-11e8-a739-c038960d2073'
p1025
sbssg710
F2
sg711
I00
sg712
I00
sg713
F1
sg714
I01
sg715
F2
sg716
F376.56600000000026
sg717
F58.075000000000003
sg718
F576.98088235293949
sg719
I01
sg720
F2
sg721
F300
sg682
I00
sg722
g723
sg724
I00
sg725
I00
sg683
I00
sg726
F2
sg727
g32
sg728
I01
sg729
F0
sg730
g1007
sg731
I00
sg732
F100
sg733
(lp1026
sg735
F0
sg736
I00
sg737
g1014
sg739
S'06.png'
p1027
sg741
g723
sg742
I01
sg743
F7
sg744
S'95ef7f20-d49e-11e8-a739-c038960d2073'
p1028
sba(iclasses.clip
clip
p1029
(dp1030
g696
g697
sg698
I00
sg699
I00
sg700
(dp1031
g702
(iclasses.keyframe
keyframe
p1032
(dp1033
g47
I0
sg48
F100
sg49
F100
sS'x'
F0
sS'y'
F0
sg50
F1
sg51
S'985d4f44-d49e-11e8-a739-c038960d2073'
p1034
sbsg706
(iclasses.keyframe
keyframe
p1035
(dp1036
g47
I-1
sg48
F100
sg49
F100
sS'x'
F0
sS'y'
F0
sg50
F1
sg51
S'985d502a-d49e-11e8-a739-c038960d2073'
p1037
sbssg710
F2
sg711
I00
sg712
I00
sg713
F1
sg714
I01
sg715
F2
sg716
F383.56600000000026
sg717
F0
sg718
F0
sg719
I01
sg720
F2
sg721
F300
sg722
g723
sg724
I00
sg725
I00
sg726
F2
sg727
g32
sg728
I01
sg729
F0
sg730
g1007
sg731
I00
sg732
F100
sg733
(lp1038
sg735
F0
sg736
I00
sg737
g1014
sg739
S'06.png'
p1039
sg741
g723
sg742
I01
sg743
F7
sg744
S'985d4d1e-d49e-11e8-a739-c038960d2073'
p1040
sba(iclasses.clip
clip
p1041
(dp1042
g696
g697
sg698
I00
sg699
I00
sg700
(dp1043
g702
(iclasses.keyframe
keyframe
p1044
(dp1045
g47
I0
sg48
F100
sg49
F100
sS'x'
F0
sS'y'
F0
sg50
F1
sg51
S'9a53ec40-d49e-11e8-a739-c038960d2073'
p1046
sbsg706
(iclasses.keyframe
keyframe
p1047
(dp1048
g47
I-1
sg48
F100
sg49
F100
sS'x'
F0
sS'y'
F0
sg50
F1
sg51
S'9a53ed58-d49e-11e8-a739-c038960d2073'
p1049
sbssg710
F2
sg711
I00
sg712
I00
sg713
F1
sg714
I01
sg715
F2
sg716
F390.5660000000002
sg717
F0
sg718
F0
sg719
I01
sg720
F2
sg721
F300
sg722
g723
sg724
I00
sg725
I00
sg726
F2
sg727
g32
sg728
I01
sg729
F0
sg730
g1007
sg731
I00
sg732
F100
sg733
(lp1050
sg735
F0
sg736
I00
sg737
g1014
sg739
S'06.png'
p1051
sg741
g723
sg742
I01
sg743
F7
sg744
S'9a53e9d4-d49e-11e8-a739-c038960d2073'
p1052
sba(iclasses.clip
clip
p1053
(dp1054
g696
g697
sg698
I01
sg699
I00
sg700
(dp1055
g702
(iclasses.keyframe
keyframe
p1056
(dp1057
g47
I0
sg48
F100
sg49
F100
sS'x'
F0
sS'y'
F0
sg50
F1
sg51
S'9bae6994-d49e-11e8-a739-c038960d2073'
p1058
sbsg706
(iclasses.keyframe
keyframe
p1059
(dp1060
g47
I-1
sg48
F100
sg49
F100
sS'x'
F0
sS'y'
F0
sg50
F1
sg51
S'9bae6ac0-d49e-11e8-a739-c038960d2073'
p1061
sbssg710
F2
sg711
I00
sg712
I00
sg713
F1
sg714
I01
sg715
F2
sg716
F397.5660000000002
sg717
F30.074999999999999
sg718
F791.45147058823386
sg719
I01
sg720
F2
sg721
F300
sg682
I00
sg722
g723
sg724
I00
sg725
I00
sg683
I00
sg726
F2
sg727
g32
sg728
I01
sg729
F0
sg730
g1007
sg731
I00
sg732
F100
sg733
(lp1062
sg735
F0
sg736
I00
sg737
g1014
sg739
S'06.png'
p1063
sg741
g723
sg742
I01
sg743
F7
sg744
S'9bae66e2-d49e-11e8-a739-c038960d2073'
p1064
sba(iclasses.clip
clip
p1065
(dp1066
g696
g697
sg698
I00
sg699
I00
sg700
(dp1067
g702
(iclasses.keyframe
keyframe
p1068
(dp1069
g47
I0
sg48
F100
sg49
F100
sS'x'
F0
sS'y'
F0
sg50
F1
sg51
S'9f6ffdae-d49e-11e8-a739-c038960d2073'
p1070
sbsg706
(iclasses.keyframe
keyframe
p1071
(dp1072
g47
I-1
sg48
F100
sg49
F100
sS'x'
F0
sS'y'
F0
sg50
F1
sg51
S'9f6ffe8a-d49e-11e8-a739-c038960d2073'
p1073
sbssg710
F2
sg711
I00
sg712
I00
sg713
F1
sg714
I01
sg715
F2
sg716
F404.56600000000014
sg717
F37.5
sg718
F20505.5
sg719
I01
sg720
F2
sg721
F300
sg682
I00
sg722
g723
sg724
I00
sg725
I00
sg683
I00
sg726
F2
sg727
g32
sg728
I01
sg729
F0
sg730
g1007
sg731
I00
sg732
F100
sg733
(lp1074
sg735
F0
sg736
I00
sg737
g1014
sg739
S'06.png'
p1075
sg741
g723
sg742
I01
sg743
F5.633999999999844
sg744
S'9f6ffb4c-d49e-11e8-a739-c038960d2073'
p1076
sba(iclasses.clip
clip
p1077
(dp1078
g696
g697
sg698
I00
sg699
I00
sg700
(dp1079
g702
(iclasses.keyframe
keyframe
p1080
(dp1081
g47
I0
sg48
F100
sg49
F100
sS'x'
F0
sS'y'
F0
sg50
F1
sg51
S'b0a0ff2e-d49e-11e8-a739-c038960d2073'
p1082
sbsg706
(iclasses.keyframe
keyframe
p1083
(dp1084
g47
I-1
sg48
F100
sg49
F100
sS'x'
F0
sS'y'
F0
sg50
F1
sg51
S'b0a1006e-d49e-11e8-a739-c038960d2073'
p1085
sbssg710
F2
sg711
I00
sg712
I00
sg713
F1
sg714
I01
sg715
F2
sg716
F410.19999999999999
sg717
F0
sg718
F0
sg719
I01
sg720
F2
sg721
F300
sg722
g723
sg724
I00
sg725
I00
sg726
F2
sg727
g32
sg728
I01
sg729
F0
sg730
(iclasses.files
OpenShotFile
p1086
(dp1087
g82
F14999
sg83
S''
sg84
I0
sg85
S'/home/emi/Escritorio/thumbnail/d03f6cbe-cf29-11e8-9c22-c038960d2073_png_1.png'
p1088
sg87
S'/home/emi/Escritorio/Nuevas Tecnologias/1\xc2\xba Trimestre/big data presentacion/imagenes video/07.png'
p1089
sg89
Nsg90
g91
sg92
I0
sg48
I1080
sg93
g1
sg49
I1920
sg94
F300
sg95
F29.970029970029969
sg96
I1
sg97
S''
sg98
(F29.970029970029969
I0
tp1090
sg100
S''
sg51
S'd0480464-cf29-11e8-9c22-c038960d2073'
p1091
sbsg731
I00
sg732
F100
sg733
(lp1092
sg735
F0
sg736
I00
sg737
S'/home/emi/Escritorio/thumbnail/d03f6cbe-cf29-11e8-9c22-c038960d2073_png_1.png'
p1093
sg739
S'07.png'
p1094
sg741
g723
sg742
I01
sg743
F7
sg744
S'b0a0fc72-d49e-11e8-a739-c038960d2073'
p1095
sba(iclasses.clip
clip
p1096
(dp1097
g696
g697
sg698
I00
sg699
I00
sg700
(dp1098
g702
(iclasses.keyframe
keyframe
p1099
(dp1100
g47
I0
sg48
F100
sg49
F100
sS'x'
F0
sS'y'
F0
sg50
F1
sg51
S'b32314c6-d49e-11e8-a739-c038960d2073'
p1101
sbsg706
(iclasses.keyframe
keyframe
p1102
(dp1103
g47
I-1
sg48
F100
sg49
F100
sS'x'
F0
sS'y'
F0
sg50
F1
sg51
S'b3231610-d49e-11e8-a739-c038960d2073'
p1104
sbssg710
F2
sg711
I00
sg712
I00
sg713
F1
sg714
I01
sg715
F2
sg716
F417.19999999999999
sg717
F0
sg718
F0
sg719
I01
sg720
F2
sg721
F300
sg722
g723
sg724
I00
sg725
I00
sg726
F2
sg727
g32
sg728
I01
sg729
F0
sg730
g1086
sg731
I00
sg732
F100
sg733
(lp1105
sg735
F0
sg736
I00
sg737
g1093
sg739
S'07.png'
p1106
sg741
g723
sg742
I01
sg743
F7
sg744
S'b3231214-d49e-11e8-a739-c038960d2073'
p1107
sba(iclasses.clip
clip
p1108
(dp1109
g696
g697
sg698
I00
sg699
I00
sg700
(dp1110
g702
(iclasses.keyframe
keyframe
p1111
(dp1112
g47
I0
sg48
F100
sg49
F100
sS'x'
F0
sS'y'
F0
sg50
F1
sg51
S'b472b5fc-d49e-11e8-a739-c038960d2073'
p1113
sbsg706
(iclasses.keyframe
keyframe
p1114
(dp1115
g47
I-1
sg48
F100
sg49
F100
sS'x'
F0
sS'y'
F0
sg50
F1
sg51
S'b472b778-d49e-11e8-a739-c038960d2073'
p1116
sbssg710
F2
sg711
I00
sg712
I00
sg713
F1
sg714
I01
sg715
F2
sg716
F424.19999999999999
sg717
F0
sg718
F0
sg719
I01
sg720
F2
sg721
F300
sg722
g723
sg724
I00
sg725
I00
sg726
F2
sg727
g32
sg728
I01
sg729
F0
sg730
g1086
sg731
I00
sg732
F100
sg733
(lp1117
sg735
F0
sg736
I00
sg737
g1093
sg739
S'07.png'
p1118
sg741
g723
sg742
I01
sg743
F7
sg744
S'b472b3b8-d49e-11e8-a739-c038960d2073'
p1119
sba(iclasses.clip
clip
p1120
(dp1121
g696
g697
sg698
I01
sg699
I00
sg700
(dp1122
g702
(iclasses.keyframe
keyframe
p1123
(dp1124
g47
I0
sg48
F100
sg49
F100
sS'x'
F0
sS'y'
F0
sg50
F1
sg51
S'b5fd0e90-d49e-11e8-a739-c038960d2073'
p1125
sbsg706
(iclasses.keyframe
keyframe
p1126
(dp1127
g47
I-1
sg48
F100
sg49
F100
sS'x'
F0
sS'y'
F0
sg50
F1
sg51
S'b5fd0fda-d49e-11e8-a739-c038960d2073'
p1128
sbssg710
F2
sg711
I00
sg712
I00
sg713
F1
sg714
I01
sg715
F2
sg716
F431.19999999999999
sg717
F23.074999999999999
sg718
F601.07499999999982
sg719
I01
sg720
F2
sg721
F300
sg682
I00
sg722
g723
sg724
I00
sg725
I00
sg683
I00
sg726
F2
sg727
g32
sg728
I01
sg729
F0
sg730
g1086
sg731
I00
sg732
F100
sg733
(lp1129
sg735
F0
sg736
I00
sg737
g1093
sg739
S'07.png'
p1130
sg741
g723
sg742
I01
sg743
F7
sg744
S'b5fd0bd4-d49e-11e8-a739-c038960d2073'
p1131
sba(iclasses.clip
clip
p1132
(dp1133
g696
g697
sg698
I00
sg699
I00
sg700
(dp1134
g702
(iclasses.keyframe
keyframe
p1135
(dp1136
g47
I0
sg48
F100
sg49
F100
sS'x'
F0
sS'y'
F0
sg50
F1
sg51
S'daf1867c-d49e-11e8-a739-c038960d2073'
p1137
sbsg706
(iclasses.keyframe
keyframe
p1138
(dp1139
g47
I-1
sg48
F100
sg49
F100
sS'x'
F0
sS'y'
F0
sg50
F1
sg51
S'daf187bc-d49e-11e8-a739-c038960d2073'
p1140
sbssg710
F2
sg711
I00
sg712
I00
sg713
F1
sg714
I01
sg715
F2
sg716
F438.19999999999999
sg717
F0
sg718
F0
sg719
I01
sg720
F2
sg721
F300
sg722
g723
sg724
I00
sg725
I00
sg726
F2
sg727
g32
sg728
I01
sg729
F0
sg730
g1086
sg731
I00
sg732
F100
sg733
(lp1141
sg735
F0
sg736
I00
sg737
S'/home/emi/Escritorio/thumbnail/d03f6cbe-cf29-11e8-9c22-c038960d2073_png_1.png'
p1142
sg739
S'07.png'
p1143
sg741
g723
sg742
I01
sg743
F7
sg744
S'daf183ac-d49e-11e8-a739-c038960d2073'
p1144
sba(iclasses.clip
clip
p1145
(dp1146
g696
g697
sg698
I00
sg699
I00
sg700
(dp1147
g702
(iclasses.keyframe
keyframe
p1148
(dp1149
g47
I0
sg48
F100
sg49
F100
sS'x'
F0
sS'y'
F0
sg50
F1
sg51
S'dcc53296-d49e-11e8-a739-c038960d2073'
p1150
sbsg706
(iclasses.keyframe
keyframe
p1151
(dp1152
g47
I-1
sg48
F100
sg49
F100
sS'x'
F0
sS'y'
F0
sg50
F1
sg51
S'dcc5349e-d49e-11e8-a739-c038960d2073'
p1153
sbssg710
F2
sg711
I00
sg712
I00
sg713
F1
sg714
I01
sg715
F2
sg716
F445.19999999999999
sg717
F0
sg718
F0
sg719
I01
sg720
F2
sg721
F300
sg722
g723
sg724
I00
sg725
I00
sg726
F2
sg727
g32
sg728
I01
sg729
F0
sg730
g1086
sg731
I00
sg732
F100
sg733
(lp1154
sg735
F0
sg736
I00
sg737
g1142
sg739
S'07.png'
p1155
sg741
g723
sg742
I01
sg743
F7
sg744
S'dcc52ef4-d49e-11e8-a739-c038960d2073'
p1156
sba(iclasses.clip
clip
p1157
(dp1158
g696
g697
sg698
I00
sg699
I00
sg700
(dp1159
g702
(iclasses.keyframe
keyframe
p1160
(dp1161
g47
I0
sg48
F100
sg49
F100
sS'x'
F0
sS'y'
F0
sg50
F1
sg51
S'de3448ba-d49e-11e8-a739-c038960d2073'
p1162
sbsg706
(iclasses.keyframe
keyframe
p1163
(dp1164
g47
I-1
sg48
F100
sg49
F100
sS'x'
F0
sS'y'
F0
sg50
F1
sg51
S'de3449aa-d49e-11e8-a739-c038960d2073'
p1165
sbssg710
F2
sg711
I00
sg712
I00
sg713
F1
sg714
I01
sg715
F2
sg716
F452.19999999999999
sg717
F0
sg718
F0
sg719
I01
sg720
F2
sg721
F300
sg722
g723
sg724
I00
sg725
I00
sg726
F2
sg727
g32
sg728
I01
sg729
F0
sg730
g1086
sg731
I00
sg732
F100
sg733
(lp1166
sg735
F0
sg736
I00
sg737
g1142
sg739
S'07.png'
p1167
sg741
g723
sg742
I01
sg743
F7
sg744
S'de34466c-d49e-11e8-a739-c038960d2073'
p1168
sba(iclasses.clip
clip
p1169
(dp1170
g696
g697
sg698
I00
sg699
I00
sg700
(dp1171
g702
(iclasses.keyframe
keyframe
p1172
(dp1173
g47
I0
sg48
F100
sg49
F100
sS'x'
F0
sS'y'
F0
sg50
F1
sg51
S'df7f4b02-d49e-11e8-a739-c038960d2073'
p1174
sbsg706
(iclasses.keyframe
keyframe
p1175
(dp1176
g47
I-1
sg48
F100
sg49
F100
sS'x'
F0
sS'y'
F0
sg50
F1
sg51
S'df7f4c56-d49e-11e8-a739-c038960d2073'
p1177
sbssg710
F2
sg711
I00
sg712
I00
sg713
F1
sg714
I01
sg715
F2
sg716
F459.19999999999999
sg717
F0
sg718
F0
sg719
I01
sg720
F2
sg721
F300
sg722
g723
sg724
I00
sg725
I00
sg726
F2
sg727
g32
sg728
I01
sg729
F0
sg730
g1086
sg731
I00
sg732
F100
sg733
(lp1178
sg735
F0
sg736
I00
sg737
g1142
sg739
S'07.png'
p1179
sg741
g723
sg742
I01
sg743
F7
sg744
S'df7f4846-d49e-11e8-a739-c038960d2073'
p1180
sba(iclasses.clip
clip
p1181
(dp1182
g696
g697
sg698
I00
sg699
I00
sg700
(dp1183
g702
(iclasses.keyframe
keyframe
p1184
(dp1185
g47
I0
sg48
F100
sg49
F100
sS'x'
F0
sS'y'
F0
sg50
F1
sg51
S'e0b2e86c-d49e-11e8-a739-c038960d2073'
p1186
sbsg706
(iclasses.keyframe
keyframe
p1187
(dp1188
g47
I-1
sg48
F100
sg49
F100
sS'x'
F0
sS'y'
F0
sg50
F1
sg51
S'e0b2e9b6-d49e-11e8-a739-c038960d2073'
p1189
sbssg710
F2
sg711
I00
sg712
I00
sg713
F1
sg714
I01
sg715
F2
sg716
F466.19999999999999
sg717
F0
sg718
F0
sg719
I01
sg720
F2
sg721
F300
sg722
g723
sg724
I00
sg725
I00
sg726
F2
sg727
g32
sg728
I01
sg729
F0
sg730
g1086
sg731
I00
sg732
F100
sg733
(lp1190
sg735
F0
sg736
I00
sg737
g1142
sg739
S'07.png'
p1191
sg741
g723
sg742
I01
sg743
F7
sg744
S'e0b2e5b0-d49e-11e8-a739-c038960d2073'
p1192
sba(iclasses.clip
clip
p1193
(dp1194
g696
g697
sg698
I01
sg699
I00
sg700
(dp1195
g702
(iclasses.keyframe
keyframe
p1196
(dp1197
g47
I0
sg48
F100
sg49
F100
sS'x'
F0
sS'y'
F0
sg50
F1
sg51
S'e2323666-d49e-11e8-a739-c038960d2073'
p1198
sbsg706
(iclasses.keyframe
keyframe
p1199
(dp1200
g47
I-1
sg48
F100
sg49
F100
sS'x'
F0
sS'y'
F0
sg50
F1
sg51
S'e23237b0-d49e-11e8-a739-c038960d2073'
p1201
sbssg710
F2
sg711
I00
sg712
I00
sg713
F1
sg714
I01
sg715
F2
sg716
F473.19999999999999
sg717
F37.075000000000003
sg718
F1011.0088721528282
sg719
I01
sg720
F2
sg721
F300
sg682
I00
sg722
g723
sg724
I00
sg725
I00
sg683
I00
sg726
F2
sg727
g32
sg728
I01
sg729
F0
sg730
g1086
sg731
I00
sg732
F100
sg733
(lp1202
sg735
F0
sg736
I00
sg737
g1142
sg739
S'07.png'
p1203
sg741
g723
sg742
I01
sg743
F7
sg744
S'e23233a0-d49e-11e8-a739-c038960d2073'
p1204
sba(iclasses.clip
clip
p1205
(dp1206
g696
g697
sg698
I00
sg699
I00
sg700
(dp1207
g702
(iclasses.keyframe
keyframe
p1208
(dp1209
g47
I0
sg48
F100
sg49
F100
sS'x'
F0
sS'y'
F0
sg50
F1
sg51
S'e477456a-d49e-11e8-a739-c038960d2073'
p1210
sbsg706
(iclasses.keyframe
keyframe
p1211
(dp1212
g47
I-1
sg48
F100
sg49
F100
sS'x'
F0
sS'y'
F0
sg50
F1
sg51
S'e477470e-d49e-11e8-a739-c038960d2073'
p1213
sbssg710
F2
sg711
I00
sg712
I00
sg713
F1
sg714
I01
sg715
F2
sg716
F480.19999999999999
sg717
F0
sg718
F0
sg719
I01
sg720
F2
sg721
F300
sg722
g723
sg724
I00
sg725
I00
sg726
F2
sg727
g32
sg728
I01
sg729
F0
sg730
g1086
sg731
I00
sg732
F100
sg733
(lp1214
sg735
F0
sg736
I00
sg737
g1142
sg739
S'07.png'
p1215
sg741
g723
sg742
I01
sg743
F7
sg744
S'e477422c-d49e-11e8-a739-c038960d2073'
p1216
sba(iclasses.clip
clip
p1217
(dp1218
g696
g697
sg698
I00
sg699
I00
sg700
(dp1219
g702
(iclasses.keyframe
keyframe
p1220
(dp1221
g47
I0
sg48
F100
sg49
F100
sS'x'
F0
sS'y'
F0
sg50
F1
sg51
S'e622812c-d49e-11e8-a739-c038960d2073'
p1222
sbsg706
(iclasses.keyframe
keyframe
p1223
(dp1224
g47
I-1
sg48
F100
sg49
F100
sS'x'
F0
sS'y'
F0
sg50
F1
sg51
S'e6228258-d49e-11e8-a739-c038960d2073'
p1225
sbssg710
F2
sg711
I00
sg712
I00
sg713
F1
sg714
I01
sg715
F2
sg716
F487.19999999999999
sg717
F0
sg718
F0
sg719
I01
sg720
F2
sg721
F300
sg722
g723
sg724
I00
sg725
I00
sg726
F2
sg727
g32
sg728
I01
sg729
F0
sg730
g1086
sg731
I00
sg732
F100
sg733
(lp1226
sg735
F0
sg736
I00
sg737
g1142
sg739
S'07.png'
p1227
sg741
g723
sg742
I01
sg743
F7
sg744
S'e6227e98-d49e-11e8-a739-c038960d2073'
p1228
sba(iclasses.clip
clip
p1229
(dp1230
g696
g697
sg698
I00
sg699
I00
sg700
(dp1231
g702
(iclasses.keyframe
keyframe
p1232
(dp1233
g47
I0
sg48
F100
sg49
F100
sS'x'
F0
sS'y'
F0
sg50
F1
sg51
S'e76e9430-d49e-11e8-a739-c038960d2073'
p1234
sbsg706
(iclasses.keyframe
keyframe
p1235
(dp1236
g47
I-1
sg48
F100
sg49
F100
sS'x'
F0
sS'y'
F0
sg50
F1
sg51
S'e76e9520-d49e-11e8-a739-c038960d2073'
p1237
sbssg710
F2
sg711
I00
sg712
I00
sg713
F1
sg714
I01
sg715
F2
sg716
F494.19999999999999
sg717
F0
sg718
F0
sg719
I01
sg720
F2
sg721
F300
sg722
g723
sg724
I00
sg725
I00
sg726
F2
sg727
g32
sg728
I01
sg729
F0
sg730
g1086
sg731
I00
sg732
F100
sg733
(lp1238
sg735
F0
sg736
I00
sg737
g1142
sg739
S'07.png'
p1239
sg741
g723
sg742
I01
sg743
F7
sg744
S'e76e91c4-d49e-11e8-a739-c038960d2073'
p1240
sba(iclasses.clip
clip
p1241
(dp1242
g696
g697
sg698
I00
sg699
I00
sg700
(dp1243
g702
(iclasses.keyframe
keyframe
p1244
(dp1245
g47
I0
sg48
F100
sg49
F100
sS'x'
F0
sS'y'
F0
sg50
F1
sg51
S'e95e2bc0-d49e-11e8-a739-c038960d2073'
p1246
sbsg706
(iclasses.keyframe
keyframe
p1247
(dp1248
g47
I-1
sg48
F100
sg49
F100
sS'x'
F0
sS'y'
F0
sg50
F1
sg51
S'e95e2cec-d49e-11e8-a739-c038960d2073'
p1249
sbssg710
F2
sg711
I00
sg712
I00
sg713
F1
sg714
I01
sg715
F2
sg716
F501.19999999999999
sg717
F0
sg718
F0
sg719
I01
sg720
F2
sg721
F300
sg722
g723
sg724
I00
sg725
I00
sg726
F2
sg727
g32
sg728
I01
sg729
F0
sg730
g1086
sg731
I00
sg732
F100
sg733
(lp1250
sg735
F0
sg736
I00
sg737
g1142
sg739
S'07.png'
p1251
sg741
g723
sg742
I01
sg743
F7
sg744
S'e95e292c-d49e-11e8-a739-c038960d2073'
p1252
sba(iclasses.clip
clip
p1253
(dp1254
g696
g697
sg698
I00
sg699
I00
sg700
(dp1255
g702
(iclasses.keyframe
keyframe
p1256
(dp1257
g47
I0
sg48
F100
sg49
F100
sS'x'
F0
sS'y'
F0
sg50
F1
sg51
S'eb7aeee8-d49e-11e8-a739-c038960d2073'
p1258
sbsg706
(iclasses.keyframe
keyframe
p1259
(dp1260
g47
I-1
sg48
F100
sg49
F100
sS'x'
F0
sS'y'
F0
sg50
F1
sg51
S'eb7af03c-d49e-11e8-a739-c038960d2073'
p1261
sbssg710
F2
sg711
I00
sg712
I00
sg713
F1
sg714
I01
sg715
F2
sg716
F508.19999999999999
sg717
F0
sg718
F0
sg719
I01
sg720
F2
sg721
F300
sg722
g723
sg724
I00
sg725
I00
sg726
F2
sg727
g32
sg728
I01
sg729
F0
sg730
g1086
sg731
I00
sg732
F100
sg733
(lp1262
sg735
F0
sg736
I00
sg737
g1142
sg739
S'07.png'
p1263
sg741
g723
sg742
I01
sg743
F7
sg744
S'eb7aebdc-d49e-11e8-a739-c038960d2073'
p1264
sba(iclasses.clip
clip
p1265
(dp1266
g696
g697
sg698
I00
sg699
I00
sg700
(dp1267
g702
(iclasses.keyframe
keyframe
p1268
(dp1269
g47
I0
sg48
F100
sg49
F100
sS'x'
F0
sS'y'
F0
sg50
F1
sg51
S'ed940af2-d49e-11e8-a739-c038960d2073'
p1270
sbsg706
(iclasses.keyframe
keyframe
p1271
(dp1272
g47
I-1
sg48
F100
sg49
F100
sS'x'
F0
sS'y'
F0
sg50
F1
sg51
S'ed940c28-d49e-11e8-a739-c038960d2073'
p1273
sbssg710
F2
sg711
I00
sg712
I00
sg713
F1
sg714
I01
sg715
F2
sg716
F515.20000000000005
sg717
F40.5
sg718
F25837.5
sg719
I01
sg720
F2
sg721
F300
sg722
g723
sg724
I00
sg725
I00
sg683
I00
sg726
F2
sg727
g32
sg728
I01
sg729
F0
sg730
g1086
sg731
I00
sg732
F100
sg733
(lp1274
sg735
F0
sg736
I00
sg737
g1142
sg739
S'07.png'
p1275
sg741
g723
sg742
I01
sg743
F1.6499999999999773
sg744
S'ed94085e-d49e-11e8-a739-c038960d2073'
p1276
sba(iclasses.clip
clip
p1277
(dp1278
g696
g697
sg698
I00
sg699
I00
sg700
(dp1279
g702
(iclasses.keyframe
keyframe
p1280
(dp1281
g47
I0
sg48
F100
sg49
F100
sS'x'
F0
sS'y'
F0
sg50
F1
sg51
S'070e4876-d49f-11e8-a739-c038960d2073'
p1282
sbsg706
(iclasses.keyframe
keyframe
p1283
(dp1284
g47
I-1
sg48
F100
sg49
F100
sS'x'
F0
sS'y'
F0
sg50
F1
sg51
S'070e49c0-d49f-11e8-a739-c038960d2073'
p1285
sbssg710
F2
sg711
I00
sg712
I00
sg713
F1
sg714
I01
sg715
F2
sg716
F516.85000000000002
sg717
F0
sg718
F0
sg719
I01
sg720
F2
sg721
F300
sg722
g723
sg724
I00
sg725
I00
sg726
F2
sg727
g32
sg728
I01
sg729
F0
sg730
(iclasses.files
OpenShotFile
p1286
(dp1287
g82
F14999
sg83
S''
sg84
I0
sg85
S'/home/emi/Escritorio/thumbnail/d033afaa-cf29-11e8-9c22-c038960d2073_png_1.png'
p1288
sg87
S'/home/emi/Escritorio/Nuevas Tecnologias/1\xc2\xba Trimestre/big data presentacion/imagenes video/08.png'
p1289
sg89
Nsg90
g91
sg92
I0
sg48
I1080
sg93
g1
sg49
I1920
sg94
F300
sg95
F29.970029970029969
sg96
I1
sg97
S''
sg98
(F29.970029970029969
I0
tp1290
sg100
S''
sg51
S'd03f22cc-cf29-11e8-9c22-c038960d2073'
p1291
sbsg731
I00
sg732
F100
sg733
(lp1292
sg735
F0
sg736
I00
sg737
S'/home/emi/Escritorio/thumbnail/d033afaa-cf29-11e8-9c22-c038960d2073_png_1.png'
p1293
sg739
S'08.png'
p1294
sg741
g723
sg742
I01
sg743
F7
sg744
S'070e45b0-d49f-11e8-a739-c038960d2073'
p1295
sba(iclasses.clip
clip
p1296
(dp1297
g696
g697
sg698
I00
sg699
I00
sg700
(dp1298
g702
(iclasses.keyframe
keyframe
p1299
(dp1300
g47
I0
sg48
F100
sg49
F100
sS'x'
F0
sS'y'
F0
sg50
F1
sg51
S'085f3442-d49f-11e8-a739-c038960d2073'
p1301
sbsg706
(iclasses.keyframe
keyframe
p1302
(dp1303
g47
I-1
sg48
F100
sg49
F100
sS'x'
F0
sS'y'
F0
sg50
F1
sg51
S'085f3532-d49f-11e8-a739-c038960d2073'
p1304
sbssg710
F2
sg711
I00
sg712
I00
sg713
F1
sg714
I01
sg715
F2
sg716
F523.85000000000002
sg717
F0
sg718
F0
sg719
I01
sg720
F2
sg721
F300
sg722
g723
sg724
I00
sg725
I00
sg726
F2
sg727
g32
sg728
I01
sg729
F0
sg730
g1286
sg731
I00
sg732
F100
sg733
(lp1305
sg735
F0
sg736
I00
sg737
g1293
sg739
S'08.png'
p1306
sg741
g723
sg742
I01
sg743
F7
sg744
S'085f31f4-d49f-11e8-a739-c038960d2073'
p1307
sba(iclasses.clip
clip
p1308
(dp1309
g696
g697
sg698
I01
sg699
I00
sg700
(dp1310
g702
(iclasses.keyframe
keyframe
p1311
(dp1312
g47
I0
sg48
F100
sg49
F100
sS'x'
F0
sS'y'
F0
sg50
F1
sg51
S'09ada478-d49f-11e8-a739-c038960d2073'
p1313
sbsg706
(iclasses.keyframe
keyframe
p1314
(dp1315
g47
I-1
sg48
F100
sg49
F100
sS'x'
F0
sS'y'
F0
sg50
F1
sg51
S'09ada5cc-d49f-11e8-a739-c038960d2073'
p1316
sbssg710
F2
sg711
I00
sg712
I00
sg713
F1
sg714
I01
sg715
F2
sg716
F530.85000000000002
sg717
F55.5
sg718
F680.52182284980699
sg719
I01
sg720
F2
sg721
F300
sg682
I00
sg722
g723
sg724
I00
sg725
I00
sg683
I00
sg726
F2
sg727
g32
sg728
I01
sg729
F0
sg730
g1286
sg731
I00
sg732
F100
sg733
(lp1317
sg735
F0
sg736
I00
sg737
g1293
sg739
S'08.png'
p1318
sg741
g723
sg742
I01
sg743
F7
sg744
S'09ada1b2-d49f-11e8-a739-c038960d2073'
p1319
sba(iclasses.clip
clip
p1320
(dp1321
g696
g697
sg698
I00
sg699
I00
sg700
(dp1322
g702
(iclasses.keyframe
keyframe
p1323
(dp1324
g47
I0
sg48
F100
sg49
F100
sS'x'
F0
sS'y'
F0
sg50
F1
sg51
S'0ba5cb5c-d49f-11e8-a739-c038960d2073'
p1325
sbsg706
(iclasses.keyframe
keyframe
p1326
(dp1327
g47
I-1
sg48
F100
sg49
F100
sS'x'
F0
sS'y'
F0
sg50
F1
sg51
S'0ba5cc74-d49f-11e8-a739-c038960d2073'
p1328
sbssg710
F2
sg711
I00
sg712
I00
sg713
F1
sg714
I01
sg715
F2
sg716
F537.85000000000002
sg717
F0
sg718
F0
sg719
I01
sg720
F2
sg721
F300
sg722
g723
sg724
I00
sg725
I00
sg726
F2
sg727
g32
sg728
I01
sg729
F0
sg730
g1286
sg731
I00
sg732
F100
sg733
(lp1329
sg735
F0
sg736
I00
sg737
g1293
sg739
S'08.png'
p1330
sg741
g723
sg742
I01
sg743
F7
sg744
S'0ba5c8f0-d49f-11e8-a739-c038960d2073'
p1331
sba(iclasses.clip
clip
p1332
(dp1333
g696
g697
sg698
I00
sg699
I00
sg700
(dp1334
g702
(iclasses.keyframe
keyframe
p1335
(dp1336
g47
I0
sg48
F100
sg49
F100
sS'x'
F0
sS'y'
F0
sg50
F1
sg51
S'0cf3c932-d49f-11e8-a739-c038960d2073'
p1337
sbsg706
(iclasses.keyframe
keyframe
p1338
(dp1339
g47
I-1
sg48
F100
sg49
F100
sS'x'
F0
sS'y'
F0
sg50
F1
sg51
S'0cf3ca0e-d49f-11e8-a739-c038960d2073'
p1340
sbssg710
F2
sg711
I00
sg712
I00
sg713
F1
sg714
I01
sg715
F2
sg716
F544.85000000000002
sg717
F0
sg718
F0
sg719
I01
sg720
F2
sg721
F300
sg722
g723
sg724
I00
sg725
I00
sg726
F2
sg727
g32
sg728
I01
sg729
F0
sg730
g1286
sg731
I00
sg732
F100
sg733
(lp1341
sg735
F0
sg736
I00
sg737
g1293
sg739
S'08.png'
p1342
sg741
g723
sg742
I01
sg743
F7
sg744
S'0cf3c716-d49f-11e8-a739-c038960d2073'
p1343
sba(iclasses.clip
clip
p1344
(dp1345
g696
g697
sg698
I00
sg699
I00
sg700
(dp1346
g702
(iclasses.keyframe
keyframe
p1347
(dp1348
g47
I0
sg48
F100
sg49
F100
sS'x'
F0
sS'y'
F0
sg50
F1
sg51
S'0e464fa8-d49f-11e8-a739-c038960d2073'
p1349
sbsg706
(iclasses.keyframe
keyframe
p1350
(dp1351
g47
I-1
sg48
F100
sg49
F100
sS'x'
F0
sS'y'
F0
sg50
F1
sg51
S'0e4650e8-d49f-11e8-a739-c038960d2073'
p1352
sbssg710
F2
sg711
I00
sg712
I00
sg713
F1
sg714
I01
sg715
F2
sg716
F551.85000000000002
sg717
F0
sg718
F0
sg719
I01
sg720
F2
sg721
F300
sg722
g723
sg724
I00
sg725
I00
sg726
F2
sg727
g32
sg728
I01
sg729
F0
sg730
g1286
sg731
I00
sg732
F100
sg733
(lp1353
sg735
F0
sg736
I00
sg737
g1293
sg739
S'08.png'
p1354
sg741
g723
sg742
I01
sg743
F7
sg744
S'0e464d14-d49f-11e8-a739-c038960d2073'
p1355
sba(iclasses.clip
clip
p1356
(dp1357
g696
g697
sg698
I00
sg699
I00
sg700
(dp1358
g702
(iclasses.keyframe
keyframe
p1359
(dp1360
g47
I0
sg48
F100
sg49
F100
sS'x'
F0
sS'y'
F0
sg50
F1
sg51
S'0f9c3584-d49f-11e8-a739-c038960d2073'
p1361
sbsg706
(iclasses.keyframe
keyframe
p1362
(dp1363
g47
I-1
sg48
F100
sg49
F100
sS'x'
F0
sS'y'
F0
sg50
F1
sg51
S'0f9c36d8-d49f-11e8-a739-c038960d2073'
p1364
sbssg710
F2
sg711
I00
sg712
I00
sg713
F1
sg714
I01
sg715
F2
sg716
F558.85000000000002
sg717
F0
sg718
F0
sg719
I01
sg720
F2
sg721
F300
sg722
g723
sg724
I00
sg725
I00
sg726
F2
sg727
g32
sg728
I01
sg729
F0
sg730
g1286
sg731
I00
sg732
F100
sg733
(lp1365
sg735
F0
sg736
I00
sg737
g1293
sg739
S'08.png'
p1366
sg741
g723
sg742
I01
sg743
F7
sg744
S'0f9c32aa-d49f-11e8-a739-c038960d2073'
p1367
sba(iclasses.clip
clip
p1368
(dp1369
g696
g697
sg698
I00
sg699
I00
sg700
(dp1370
g702
(iclasses.keyframe
keyframe
p1371
(dp1372
g47
I0
sg48
F100
sg49
F100
sS'x'
F0
sS'y'
F0
sg50
F1
sg51
S'1144c590-d49f-11e8-a739-c038960d2073'
p1373
sbsg706
(iclasses.keyframe
keyframe
p1374
(dp1375
g47
I-1
sg48
F100
sg49
F100
sS'x'
F0
sS'y'
F0
sg50
F1
sg51
S'1144c716-d49f-11e8-a739-c038960d2073'
p1376
sbssg710
F2
sg711
I00
sg712
I00
sg713
F1
sg714
I01
sg715
F2
sg716
F565.85000000000002
sg717
F0
sg718
F0
sg719
I01
sg720
F2
sg721
F300
sg722
g723
sg724
I00
sg725
I00
sg726
F2
sg727
g32
sg728
I01
sg729
F0
sg730
g1286
sg731
I00
sg732
F100
sg733
(lp1377
sg735
F0
sg736
I00
sg737
g1293
sg739
S'08.png'
p1378
sg741
g723
sg742
I01
sg743
F7
sg744
S'1144c108-d49f-11e8-a739-c038960d2073'
p1379
sba(iclasses.clip
clip
p1380
(dp1381
g696
g697
sg698
I00
sg699
I00
sg700
(dp1382
g702
(iclasses.keyframe
keyframe
p1383
(dp1384
g47
I0
sg48
F100
sg49
F100
sS'x'
F0
sS'y'
F0
sg50
F1
sg51
S'132863da-d49f-11e8-a739-c038960d2073'
p1385
sbsg706
(iclasses.keyframe
keyframe
p1386
(dp1387
g47
I-1
sg48
F100
sg49
F100
sS'x'
F0
sS'y'
F0
sg50
F1
sg51
S'13286574-d49f-11e8-a739-c038960d2073'
p1388
sbssg710
F2
sg711
I00
sg712
I00
sg713
F1
sg714
I01
sg715
F2
sg716
F572.85000000000002
sg717
F0
sg718
F0
sg719
I01
sg720
F2
sg721
F300
sg722
g723
sg724
I00
sg725
I00
sg726
F2
sg727
g32
sg728
I01
sg729
F0
sg730
g1286
sg731
I00
sg732
F100
sg733
(lp1389
sg735
F0
sg736
I00
sg737
g1293
sg739
S'08.png'
p1390
sg741
g723
sg742
I01
sg743
F7
sg744
S'132861aa-d49f-11e8-a739-c038960d2073'
p1391
sba(iclasses.clip
clip
p1392
(dp1393
g696
g697
sg698
I00
sg699
I00
sg700
(dp1394
g702
(iclasses.keyframe
keyframe
p1395
(dp1396
g47
I0
sg48
F100
sg49
F100
sS'x'
F0
sS'y'
F0
sg50
F1
sg51
S'29314a20-d49f-11e8-a739-c038960d2073'
p1397
sbsg706
(iclasses.keyframe
keyframe
p1398
(dp1399
g47
I-1
sg48
F100
sg49
F100
sS'x'
F0
sS'y'
F0
sg50
F1
sg51
S'29314b92-d49f-11e8-a739-c038960d2073'
p1400
sbssg710
F2
sg711
I00
sg712
I00
sg713
F1
sg714
I01
sg715
F2
sg716
F579.85000000000002
sg717
F0
sg718
F0
sg719
I01
sg720
F2
sg721
F300
sg722
g723
sg724
I00
sg725
I00
sg726
F2
sg727
g32
sg728
I01
sg729
F0
sg730
g1286
sg731
I00
sg732
F100
sg733
(lp1401
sg735
F0
sg736
I00
sg737
S'/home/emi/Escritorio/thumbnail/d033afaa-cf29-11e8-9c22-c038960d2073_png_1.png'
p1402
sg739
S'08.png'
p1403
sg741
g723
sg742
I01
sg743
F7
sg744
S'29314714-d49f-11e8-a739-c038960d2073'
p1404
sba(iclasses.clip
clip
p1405
(dp1406
g696
g697
sg698
I00
sg699
I00
sg700
(dp1407
g702
(iclasses.keyframe
keyframe
p1408
(dp1409
g47
I0
sg48
F100
sg49
F100
sS'x'
F0
sS'y'
F0
sg50
F1
sg51
S'2ad2c37c-d49f-11e8-a739-c038960d2073'
p1410
sbsg706
(iclasses.keyframe
keyframe
p1411
(dp1412
g47
I-1
sg48
F100
sg49
F100
sS'x'
F0
sS'y'
F0
sg50
F1
sg51
S'2ad2c4c6-d49f-11e8-a739-c038960d2073'
p1413
sbssg710
F2
sg711
I00
sg712
I00
sg713
F1
sg714
I01
sg715
F2
sg716
F586.85000000000002
sg717
F0
sg718
F0
sg719
I01
sg720
F2
sg721
F300
sg722
g723
sg724
I00
sg725
I00
sg726
F2
sg727
g32
sg728
I01
sg729
F0
sg730
g1286
sg731
I00
sg732
F100
sg733
(lp1414
sg735
F0
sg736
I00
sg737
g1402
sg739
S'08.png'
p1415
sg741
g723
sg742
I01
sg743
F7
sg744
S'2ad2c0b6-d49f-11e8-a739-c038960d2073'
p1416
sba(iclasses.clip
clip
p1417
(dp1418
g696
g697
sg698
I00
sg699
I00
sg700
(dp1419
g702
(iclasses.keyframe
keyframe
p1420
(dp1421
g47
I0
sg48
F100
sg49
F100
sS'x'
F0
sS'y'
F0
sg50
F1
sg51
S'2cac6a2c-d49f-11e8-a739-c038960d2073'
p1422
sbsg706
(iclasses.keyframe
keyframe
p1423
(dp1424
g47
I-1
sg48
F100
sg49
F100
sS'x'
F0
sS'y'
F0
sg50
F1
sg51
S'2cac6b80-d49f-11e8-a739-c038960d2073'
p1425
sbssg710
F2
sg711
I00
sg712
I00
sg713
F1
sg714
I01
sg715
F2
sg716
F593.85000000000002
sg717
F0
sg718
F0
sg719
I01
sg720
F2
sg721
F300
sg722
g723
sg724
I00
sg725
I00
sg726
F2
sg727
g32
sg728
I01
sg729
F0
sg730
g1286
sg731
I00
sg732
F100
sg733
(lp1426
sg735
F0
sg736
I00
sg737
g1402
sg739
S'08.png'
p1427
sg741
g723
sg742
I01
sg743
F7
sg744
S'2cac6766-d49f-11e8-a739-c038960d2073'
p1428
sba(iclasses.clip
clip
p1429
(dp1430
g696
g697
sg698
I00
sg699
I00
sg700
(dp1431
g702
(iclasses.keyframe
keyframe
p1432
(dp1433
g47
I0
sg48
F100
sg49
F100
sS'x'
F0
sS'y'
F0
sg50
F1
sg51
S'2e1e4ac4-d49f-11e8-a739-c038960d2073'
p1434
sbsg706
(iclasses.keyframe
keyframe
p1435
(dp1436
g47
I-1
sg48
F100
sg49
F100
sS'x'
F0
sS'y'
F0
sg50
F1
sg51
S'2e1e4c0e-d49f-11e8-a739-c038960d2073'
p1437
sbssg710
F2
sg711
I00
sg712
I00
sg713
F1
sg714
I01
sg715
F2
sg716
F600.85000000000002
sg717
F0
sg718
F0
sg719
I01
sg720
F2
sg721
F300
sg722
g723
sg724
I00
sg725
I00
sg726
F2
sg727
g32
sg728
I01
sg729
F0
sg730
g1286
sg731
I00
sg732
F100
sg733
(lp1438
sg735
F0
sg736
I00
sg737
g1402
sg739
S'08.png'
p1439
sg741
g723
sg742
I01
sg743
F7
sg744
S'2e1e47c2-d49f-11e8-a739-c038960d2073'
p1440
sba(iclasses.clip
clip
p1441
(dp1442
g696
g697
sg698
I00
sg699
I00
sg700
(dp1443
g702
(iclasses.keyframe
keyframe
p1444
(dp1445
g47
I0
sg48
F100
sg49
F100
sS'x'
F0
sS'y'
F0
sg50
F1
sg51
S'2f93ce24-d49f-11e8-a739-c038960d2073'
p1446
sbsg706
(iclasses.keyframe
keyframe
p1447
(dp1448
g47
I-1
sg48
F100
sg49
F100
sS'x'
F0
sS'y'
F0
sg50
F1
sg51
S'2f93cf78-d49f-11e8-a739-c038960d2073'
p1449
sbssg710
F2
sg711
I00
sg712
I00
sg713
F1
sg714
I01
sg715
F2
sg716
F607.85000000000002
sg717
F0
sg718
F0
sg719
I01
sg720
F2
sg721
F300
sg722
g723
sg724
I00
sg725
I00
sg726
F2
sg727
g32
sg728
I01
sg729
F0
sg730
g1286
sg731
I00
sg732
F100
sg733
(lp1450
sg735
F0
sg736
I00
sg737
g1402
sg739
S'08.png'
p1451
sg741
g723
sg742
I01
sg743
F7
sg744
S'2f93cb68-d49f-11e8-a739-c038960d2073'
p1452
sba(iclasses.clip
clip
p1453
(dp1454
g696
g697
sg698
I00
sg699
I00
sg700
(dp1455
g702
(iclasses.keyframe
keyframe
p1456
(dp1457
g47
I0
sg48
F100
sg49
F100
sS'x'
F0
sS'y'
F0
sg50
F1
sg51
S'312b8344-d49f-11e8-a739-c038960d2073'
p1458
sbsg706
(iclasses.keyframe
keyframe
p1459
(dp1460
g47
I-1
sg48
F100
sg49
F100
sS'x'
F0
sS'y'
F0
sg50
F1
sg51
S'312b848e-d49f-11e8-a739-c038960d2073'
p1461
sbssg710
F2
sg711
I00
sg712
I00
sg713
F1
sg714
I01
sg715
F2
sg716
F614.85000000000002
sg717
F0
sg718
F0
sg719
I01
sg720
F2
sg721
F300
sg722
g723
sg724
I00
sg725
I00
sg726
F2
sg727
g32
sg728
I01
sg729
F0
sg730
g1286
sg731
I00
sg732
F100
sg733
(lp1462
sg735
F0
sg736
I00
sg737
g1402
sg739
S'08.png'
p1463
sg741
g723
sg742
I01
sg743
F7
sg744
S'312b806a-d49f-11e8-a739-c038960d2073'
p1464
sba(iclasses.clip
clip
p1465
(dp1466
g696
g697
sg698
I00
sg699
I00
sg700
(dp1467
g702
(iclasses.keyframe
keyframe
p1468
(dp1469
g47
I0
sg48
F100
sg49
F100
sS'x'
F0
sS'y'
F0
sg50
F1
sg51
S'32a7b198-d49f-11e8-a739-c038960d2073'
p1470
sbsg706
(iclasses.keyframe
keyframe
p1471
(dp1472
g47
I-1
sg48
F100
sg49
F100
sS'x'
F0
sS'y'
F0
sg50
F1
sg51
S'32a7b292-d49f-11e8-a739-c038960d2073'
p1473
sbssg710
F2
sg711
I00
sg712
I00
sg713
F1
sg714
I01
sg715
F2
sg716
F621.85000000000002
sg717
F0
sg718
F0
sg719
I01
sg720
F2
sg721
F300
sg722
g723
sg724
I00
sg725
I00
sg726
F2
sg727
g32
sg728
I01
sg729
F0
sg730
g1286
sg731
I00
sg732
F100
sg733
(lp1474
sg735
F0
sg736
I00
sg737
g1402
sg739
S'08.png'
p1475
sg741
g723
sg742
I01
sg743
F7
sg744
S'32a7aee6-d49f-11e8-a739-c038960d2073'
p1476
sba(iclasses.clip
clip
p1477
(dp1478
g696
g697
sg698
I00
sg699
I00
sg700
(dp1479
g702
(iclasses.keyframe
keyframe
p1480
(dp1481
g47
I0
sg48
F100
sg49
F100
sS'x'
F0
sS'y'
F0
sg50
F1
sg51
S'35bcf99c-d49f-11e8-a739-c038960d2073'
p1482
sbsg706
(iclasses.keyframe
keyframe
p1483
(dp1484
g47
I-1
sg48
F100
sg49
F100
sS'x'
F0
sS'y'
F0
sg50
F1
sg51
S'35bcfab4-d49f-11e8-a739-c038960d2073'
p1485
sbssg710
F2
sg711
I00
sg712
I00
sg713
F1
sg714
I01
sg715
F2
sg716
F628.85000000000002
sg717
F0
sg718
F0
sg719
I01
sg720
F2
sg721
F300
sg722
g723
sg724
I00
sg725
I00
sg726
F2
sg727
g32
sg728
I01
sg729
F0
sg730
g1286
sg731
I00
sg732
F100
sg733
(lp1486
sg735
F0
sg736
I00
sg737
g1402
sg739
S'08.png'
p1487
sg741
g723
sg742
I01
sg743
F7
sg744
S'35bcf708-d49f-11e8-a739-c038960d2073'
p1488
sba(iclasses.clip
clip
p1489
(dp1490
g696
g697
sg698
I00
sg699
I00
sg700
(dp1491
g702
(iclasses.keyframe
keyframe
p1492
(dp1493
g47
I0
sg48
F100
sg49
F100
sS'x'
F0
sS'y'
F0
sg50
F1
sg51
S'3776dabe-d49f-11e8-a739-c038960d2073'
p1494
sbsg706
(iclasses.keyframe
keyframe
p1495
(dp1496
g47
I-1
sg48
F100
sg49
F100
sS'x'
F0
sS'y'
F0
sg50
F1
sg51
S'3776dbea-d49f-11e8-a739-c038960d2073'
p1497
sbssg710
F2
sg711
I00
sg712
I00
sg713
F1
sg714
I01
sg715
F2
sg716
F635.85000000000002
sg717
F0
sg718
F0
sg719
I01
sg720
F2
sg721
F300
sg722
g723
sg724
I00
sg725
I00
sg726
F2
sg727
g32
sg728
I01
sg729
F0
sg730
g1286
sg731
I00
sg732
F100
sg733
(lp1498
sg735
F0
sg736
I00
sg737
g1402
sg739
S'08.png'
p1499
sg741
g723
sg742
I01
sg743
F7
sg744
S'3776d802-d49f-11e8-a739-c038960d2073'
p1500
sba(iclasses.clip
clip
p1501
(dp1502
g696
g697
sg698
I00
sg699
I00
sg700
(dp1503
g702
(iclasses.keyframe
keyframe
p1504
(dp1505
g47
I0
sg48
F100
sg49
F100
sS'x'
F0
sS'y'
F0
sg50
F1
sg51
S'39445e16-d49f-11e8-a739-c038960d2073'
p1506
sbsg706
(iclasses.keyframe
keyframe
p1507
(dp1508
g47
I-1
sg48
F100
sg49
F100
sS'x'
F0
sS'y'
F0
sg50
F1
sg51
S'39445fd8-d49f-11e8-a739-c038960d2073'
p1509
sbssg710
F2
sg711
I00
sg712
I00
sg713
F1
sg714
I01
sg715
F2
sg716
F642.85000000000002
sg717
F0
sg718
F0
sg719
I01
sg720
F2
sg721
F300
sg722
g723
sg724
I00
sg725
I00
sg726
F2
sg727
g32
sg728
I01
sg729
F0
sg730
g1286
sg731
I00
sg732
F100
sg733
(lp1510
sg735
F0
sg736
I00
sg737
g1402
sg739
S'08.png'
p1511
sg741
g723
sg742
I01
sg743
F7
sg744
S'39445ad8-d49f-11e8-a739-c038960d2073'
p1512
sba(iclasses.clip
clip
p1513
(dp1514
g696
g697
sg698
I00
sg699
I00
sg700
(dp1515
g702
(iclasses.keyframe
keyframe
p1516
(dp1517
g47
I0
sg48
F100
sg49
F100
sS'x'
F0
sS'y'
F0
sg50
F1
sg51
S'354b6352-d4a1-11e8-a739-c038960d2073'
p1518
sbsg706
(iclasses.keyframe
keyframe
p1519
(dp1520
g47
I-1
sg48
F100
sg49
F100
sS'x'
F0
sS'y'
F0
sg50
F1
sg51
S'354b64a6-d4a1-11e8-a739-c038960d2073'
p1521
sbssg710
F2
sg711
I00
sg712
I00
sg713
F1
sg714
I01
sg715
F2
sg716
F649.85000000000002
sg717
F0
sg718
F0
sg719
I01
sg720
F2
sg721
F300
sg722
g723
sg724
I00
sg725
I00
sg726
F2
sg727
g32
sg728
I01
sg729
F0
sg730
(iclasses.files
OpenShotFile
p1522
(dp1523
g82
F14999
sg83
S''
sg84
I0
sg85
S'/home/emi/Escritorio/thumbnail/d02693ce-cf29-11e8-9c22-c038960d2073_png_1.png'
p1524
sg87
S'/home/emi/Escritorio/Nuevas Tecnologias/1\xc2\xba Trimestre/big data presentacion/imagenes video/09.png'
p1525
sg89
Nsg90
g91
sg92
I0
sg48
I1080
sg93
g1
sg49
I1920
sg94
F300
sg95
F29.970029970029969
sg96
I1
sg97
S''
sg98
(F29.970029970029969
I0
tp1526
sg100
S''
sg51
S'd0333fd4-cf29-11e8-9c22-c038960d2073'
p1527
sbsg731
I00
sg732
F100
sg733
(lp1528
sg735
F0
sg736
I00
sg737
S'/home/emi/Escritorio/thumbnail/d02693ce-cf29-11e8-9c22-c038960d2073_png_1.png'
p1529
sg739
S'09.png'
p1530
sg741
g723
sg742
I01
sg743
F7
sg744
S'354b6082-d4a1-11e8-a739-c038960d2073'
p1531
sba(iclasses.clip
clip
p1532
(dp1533
g696
g697
sg698
I00
sg699
I00
sg700
(dp1534
g702
(iclasses.keyframe
keyframe
p1535
(dp1536
g47
I0
sg48
F100
sg49
F100
sS'x'
F0
sS'y'
F0
sg50
F1
sg51
S'378a3a58-d4a1-11e8-a739-c038960d2073'
p1537
sbsg706
(iclasses.keyframe
keyframe
p1538
(dp1539
g47
I-1
sg48
F100
sg49
F100
sS'x'
F0
sS'y'
F0
sg50
F1
sg51
S'378a3b3e-d4a1-11e8-a739-c038960d2073'
p1540
sbssg710
F2
sg711
I00
sg712
I00
sg713
F1
sg714
I01
sg715
F2
sg716
F656.85000000000002
sg717
F38.5
sg718
F16568.5
sg719
I01
sg720
F2
sg721
F300
sg722
g723
sg724
I00
sg725
I00
sg683
I00
sg726
F2
sg727
g32
sg728
I01
sg729
F0
sg730
g1522
sg731
I00
sg732
F100
sg733
(lp1541
sg735
F0
sg736
I00
sg737
g1529
sg739
S'09.png'
p1542
sg741
g723
sg742
I01
sg743
F5.8899999999999864
sg744
S'378a3828-d4a1-11e8-a739-c038960d2073'
p1543
sba(iclasses.clip
clip
p1544
(dp1545
g696
g697
sg698
I00
sg699
I00
sg700
(dp1546
g702
(iclasses.keyframe
keyframe
p1547
(dp1548
g47
I0
sg48
F100
sg49
F100
sS'x'
F0
sS'y'
F0
sg50
F1
sg51
S'5d46feac-d4a1-11e8-a739-c038960d2073'
p1549
sbsg706
(iclasses.keyframe
keyframe
p1550
(dp1551
g47
I-1
sg48
F100
sg49
F100
sS'x'
F0
sS'y'
F0
sg50
F1
sg51
S'5d470000-d4a1-11e8-a739-c038960d2073'
p1552
sbssg710
F2
sg711
I00
sg712
I00
sg713
F1
sg714
I01
sg715
F2
sg716
F662.74000000000001
sg717
F0
sg718
F0
sg719
I01
sg720
F2
sg721
F300
sg722
g723
sg724
I00
sg725
I00
sg726
F2
sg727
g32
sg728
I01
sg729
F0
sg730
(iclasses.files
OpenShotFile
p1553
(dp1554
g82
F14999
sg83
S''
sg84
I0
sg85
S'/home/emi/Escritorio/thumbnail/d01b040a-cf29-11e8-9c22-c038960d2073_png_1.png'
p1555
sg87
S'/home/emi/Escritorio/Nuevas Tecnologias/1\xc2\xba Trimestre/big data presentacion/imagenes video/10.png'
p1556
sg89
Nsg90
g91
sg92
I0
sg48
I1080
sg93
g1
sg49
I1920
sg94
F300
sg95
F29.970029970029969
sg96
I1
sg97
S''
sg98
(F29.970029970029969
I0
tp1557
sg100
S''
sg51
S'd0263320-cf29-11e8-9c22-c038960d2073'
p1558
sbsg731
I00
sg732
F100
sg733
(lp1559
sg735
F0
sg736
I00
sg737
S'/home/emi/Escritorio/thumbnail/d01b040a-cf29-11e8-9c22-c038960d2073_png_1.png'
p1560
sg739
S'10.png'
p1561
sg741
g723
sg742
I01
sg743
F7
sg744
S'5d46fbf0-d4a1-11e8-a739-c038960d2073'
p1562
sba(iclasses.clip
clip
p1563
(dp1564
g696
g697
sg698
I00
sg699
I00
sg700
(dp1565
g702
(iclasses.keyframe
keyframe
p1566
(dp1567
g47
I0
sg48
F100
sg49
F100
sS'x'
F0
sS'y'
F0
sg50
F1
sg51
S'5f1bc15e-d4a1-11e8-a739-c038960d2073'
p1568
sbsg706
(iclasses.keyframe
keyframe
p1569
(dp1570
g47
I-1
sg48
F100
sg49
F100
sS'x'
F0
sS'y'
F0
sg50
F1
sg51
S'5f1bc2bc-d4a1-11e8-a739-c038960d2073'
p1571
sbssg710
F2
sg711
I00
sg712
I00
sg713
F1
sg714
I01
sg715
F2
sg716
F669.74000000000001
sg717
F0
sg718
F0
sg719
I01
sg720
F2
sg721
F300
sg722
g723
sg724
I00
sg725
I00
sg726
F2
sg727
g32
sg728
I01
sg729
F0
sg730
g1553
sg731
I00
sg732
F100
sg733
(lp1572
sg735
F0
sg736
I00
sg737
g1560
sg739
S'10.png'
p1573
sg741
g723
sg742
I01
sg743
F7
sg744
S'5f1bbe5c-d4a1-11e8-a739-c038960d2073'
p1574
sba(iclasses.clip
clip
p1575
(dp1576
g696
g697
sg698
I01
sg699
I00
sg700
(dp1577
g702
(iclasses.keyframe
keyframe
p1578
(dp1579
g47
I0
sg48
F100
sg49
F100
sS'x'
F0
sS'y'
F0
sg50
F1
sg51
S'60c21d0a-d4a1-11e8-a739-c038960d2073'
p1580
sbsg706
(iclasses.keyframe
keyframe
p1581
(dp1582
g47
I-1
sg48
F100
sg49
F100
sS'x'
F0
sS'y'
F0
sg50
F1
sg51
S'60c21e72-d4a1-11e8-a739-c038960d2073'
p1583
sbssg710
F2
sg711
I00
sg712
I00
sg713
F1
sg714
I01
sg715
F2
sg716
F676.74000000000001
sg717
F25.5
sg718
F1272.9866043613711
sg719
I01
sg720
F2
sg721
F300
sg682
I00
sg722
g723
sg724
I00
sg725
I00
sg683
I00
sg726
F2
sg727
g32
sg728
I01
sg729
F0
sg730
g1553
sg731
I00
sg732
F100
sg733
(lp1584
sg735
F0
sg736
I00
sg737
g1560
sg739
S'10.png'
p1585
sg741
g723
sg742
I01
sg743
F7
sg744
S'60c21a44-d4a1-11e8-a739-c038960d2073'
p1586
sba(iclasses.clip
clip
p1587
(dp1588
g696
g697
sg698
I00
sg699
I00
sg700
(dp1589
g702
(iclasses.keyframe
keyframe
p1590
(dp1591
g47
I0
sg48
F100
sg49
F100
sS'x'
F0
sS'y'
F0
sg50
F1
sg51
S'650a4b94-d4a1-11e8-a739-c038960d2073'
p1592
sbsg706
(iclasses.keyframe
keyframe
p1593
(dp1594
g47
I-1
sg48
F100
sg49
F100
sS'x'
F0
sS'y'
F0
sg50
F1
sg51
S'650a4cde-d4a1-11e8-a739-c038960d2073'
p1595
sbssg710
F2
sg711
I00
sg712
I00
sg713
F1
sg714
I01
sg715
F2
sg716
F683.74000000000001
sg717
F0
sg718
F0
sg719
I01
sg720
F2
sg721
F300
sg722
g723
sg724
I00
sg725
I00
sg726
F2
sg727
g32
sg728
I01
sg729
F0
sg730
g1553
sg731
I00
sg732
F100
sg733
(lp1596
sg735
F0
sg736
I00
sg737
g1560
sg739
S'10.png'
p1597
sg741
g723
sg742
I01
sg743
F7
sg744
S'650a48ce-d4a1-11e8-a739-c038960d2073'
p1598
sba(iclasses.clip
clip
p1599
(dp1600
g696
g697
sg698
I00
sg699
I00
sg700
(dp1601
g702
(iclasses.keyframe
keyframe
p1602
(dp1603
g47
I0
sg48
F100
sg49
F100
sS'x'
F0
sS'y'
F0
sg50
F1
sg51
S'66b6c3b4-d4a1-11e8-a739-c038960d2073'
p1604
sbsg706
(iclasses.keyframe
keyframe
p1605
(dp1606
g47
I-1
sg48
F100
sg49
F100
sS'x'
F0
sS'y'
F0
sg50
F1
sg51
S'66b6c4f4-d4a1-11e8-a739-c038960d2073'
p1607
sbssg710
F2
sg711
I00
sg712
I00
sg713
F1
sg714
I01
sg715
F2
sg716
F690.74000000000001
sg717
F0
sg718
F0
sg719
I01
sg720
F2
sg721
F300
sg722
g723
sg724
I00
sg725
I00
sg726
F2
sg727
g32
sg728
I01
sg729
F0
sg730
g1553
sg731
I00
sg732
F100
sg733
(lp1608
sg735
F0
sg736
I00
sg737
g1560
sg739
S'10.png'
p1609
sg741
g723
sg742
I01
sg743
F7
sg744
S'66b6c12a-d4a1-11e8-a739-c038960d2073'
p1610
sba(iclasses.clip
clip
p1611
(dp1612
g696
g697
sg698
I00
sg699
I00
sg700
(dp1613
g702
(iclasses.keyframe
keyframe
p1614
(dp1615
g47
I0
sg48
F100
sg49
F100
sS'x'
F0
sS'y'
F0
sg50
F1
sg51
S'688565f6-d4a1-11e8-a739-c038960d2073'
p1616
sbsg706
(iclasses.keyframe
keyframe
p1617
(dp1618
g47
I-1
sg48
F100
sg49
F100
sS'x'
F0
sS'y'
F0
sg50
F1
sg51
S'6885674a-d4a1-11e8-a739-c038960d2073'
p1619
sbssg710
F2
sg711
I00
sg712
I00
sg713
F1
sg714
I01
sg715
F2
sg716
F697.74000000000001
sg717
F39.5
sg718
F1312
sg719
I01
sg720
F2
sg721
F300
sg722
g723
sg724
I00
sg725
I00
sg683
I00
sg726
F2
sg727
g32
sg728
I01
sg729
F0
sg730
g1553
sg731
I00
sg732
F100
sg733
(lp1620
sg735
F0
sg736
I00
sg737
g1560
sg739
S'10.png'
p1621
sg741
g723
sg742
I01
sg743
F3.6399999999999864
sg744
S'68856330-d4a1-11e8-a739-c038960d2073'
p1622
sba(iclasses.clip
clip
p1623
(dp1624
g696
g697
sg698
I00
sg699
I00
sg700
(dp1625
g702
(iclasses.keyframe
keyframe
p1626
(dp1627
g47
I0
sg48
F100
sg49
F100
sS'x'
F0
sS'y'
F0
sg50
F1
sg51
S'71197b30-d4a1-11e8-a739-c038960d2073'
p1628
sbsg706
(iclasses.keyframe
keyframe
p1629
(dp1630
g47
I-1
sg48
F100
sg49
F100
sS'x'
F0
sS'y'
F0
sg50
F1
sg51
S'71197cc0-d4a1-11e8-a739-c038960d2073'
p1631
sbssg710
F2
sg711
I00
sg712
I00
sg713
F1
sg714
I01
sg715
F2
sg716
F701.38
sg717
F0
sg718
F0
sg719
I01
sg720
F2
sg721
F300
sg722
g723
sg724
I00
sg725
I00
sg726
F2
sg727
g32
sg728
I01
sg729
F0
sg730
(iclasses.files
OpenShotFile
p1632
(dp1633
g82
F14999
sg83
S''
sg84
I0
sg85
S'/home/emi/Escritorio/thumbnail/d00f475a-cf29-11e8-9c22-c038960d2073_png_1.png'
p1634
sg87
S'/home/emi/Escritorio/Nuevas Tecnologias/1\xc2\xba Trimestre/big data presentacion/imagenes video/11.png'
p1635
sg89
Nsg90
g91
sg92
I0
sg48
I1080
sg93
g1
sg49
I1920
sg94
F300
sg95
F29.970029970029969
sg96
I1
sg97
S''
sg98
(F29.970029970029969
I0
tp1636
sg100
S''
sg51
S'd01aa3ac-cf29-11e8-9c22-c038960d2073'
p1637
sbsg731
I00
sg732
F100
sg733
(lp1638
sg735
F0
sg736
I00
sg737
S'/home/emi/Escritorio/thumbnail/d00f475a-cf29-11e8-9c22-c038960d2073_png_1.png'
p1639
sg739
S'11.png'
p1640
sg741
g723
sg742
I01
sg743
F7
sg744
S'7119781a-d4a1-11e8-a739-c038960d2073'
p1641
sba(iclasses.clip
clip
p1642
(dp1643
g696
g697
sg698
I00
sg699
I00
sg700
(dp1644
g702
(iclasses.keyframe
keyframe
p1645
(dp1646
g47
I0
sg48
F100
sg49
F100
sS'x'
F0
sS'y'
F0
sg50
F1
sg51
S'7d325db0-d4a1-11e8-a739-c038960d2073'
p1647
sbsg706
(iclasses.keyframe
keyframe
p1648
(dp1649
g47
I-1
sg48
F100
sg49
F100
sS'x'
F0
sS'y'
F0
sg50
F1
sg51
S'7d325edc-d4a1-11e8-a739-c038960d2073'
p1650
sbssg710
F2
sg711
I00
sg712
I00
sg713
F1
sg714
I01
sg715
F2
sg716
F708.38
sg717
F0
sg718
F0
sg719
I01
sg720
F2
sg721
F300
sg722
g723
sg724
I00
sg725
I00
sg726
F2
sg727
g32
sg728
I01
sg729
F0
sg730
g1632
sg731
I00
sg732
F100
sg733
(lp1651
sg735
F0
sg736
I00
sg737
g1639
sg739
S'11.png'
p1652
sg741
g723
sg742
I01
sg743
F7
sg744
S'7d325b30-d4a1-11e8-a739-c038960d2073'
p1653
sba(iclasses.clip
clip
p1654
(dp1655
g696
g697
sg698
I00
sg699
I00
sg700
(dp1656
g702
(iclasses.keyframe
keyframe
p1657
(dp1658
g47
I0
sg48
F100
sg49
F100
sS'x'
F0
sS'y'
F0
sg50
F1
sg51
S'7e821c46-d4a1-11e8-a739-c038960d2073'
p1659
sbsg706
(iclasses.keyframe
keyframe
p1660
(dp1661
g47
I-1
sg48
F100
sg49
F100
sS'x'
F0
sS'y'
F0
sg50
F1
sg51
S'7e821d72-d4a1-11e8-a739-c038960d2073'
p1662
sbssg710
F2
sg711
I00
sg712
I00
sg713
F1
sg714
I01
sg715
F2
sg716
F715.38
sg717
F0
sg718
F0
sg719
I01
sg720
F2
sg721
F300
sg722
g723
sg724
I00
sg725
I00
sg726
F2
sg727
g32
sg728
I01
sg729
F0
sg730
g1632
sg731
I00
sg732
F100
sg733
(lp1663
sg735
F0
sg736
I00
sg737
g1639
sg739
S'11.png'
p1664
sg741
g723
sg742
I01
sg743
F7
sg744
S'7e82194e-d4a1-11e8-a739-c038960d2073'
p1665
sba(iclasses.clip
clip
p1666
(dp1667
g696
g697
sg698
I00
sg699
I00
sg700
(dp1668
g702
(iclasses.keyframe
keyframe
p1669
(dp1670
g47
I0
sg48
F100
sg49
F100
sS'x'
F0
sS'y'
F0
sg50
F1
sg51
S'8038515e-d4a1-11e8-a739-c038960d2073'
p1671
sbsg706
(iclasses.keyframe
keyframe
p1672
(dp1673
g47
I-1
sg48
F100
sg49
F100
sS'x'
F0
sS'y'
F0
sg50
F1
sg51
S'803852b2-d4a1-11e8-a739-c038960d2073'
p1674
sbssg710
F2
sg711
I00
sg712
I00
sg713
F1
sg714
I01
sg715
F2
sg716
F722.38
sg717
F0
sg718
F0
sg719
I01
sg720
F2
sg721
F300
sg722
g723
sg724
I00
sg725
I00
sg726
F2
sg727
g32
sg728
I01
sg729
F0
sg730
g1632
sg731
I00
sg732
F100
sg733
(lp1675
sg735
F0
sg736
I00
sg737
g1639
sg739
S'11.png'
p1676
sg741
g723
sg742
I01
sg743
F7
sg744
S'80384e98-d4a1-11e8-a739-c038960d2073'
p1677
sba(iclasses.clip
clip
p1678
(dp1679
g696
g697
sg698
I00
sg699
I00
sg700
(dp1680
g702
(iclasses.keyframe
keyframe
p1681
(dp1682
g47
I0
sg48
F100
sg49
F100
sS'x'
F0
sS'y'
F0
sg50
F1
sg51
S'81a54e16-d4a1-11e8-a739-c038960d2073'
p1683
sbsg706
(iclasses.keyframe
keyframe
p1684
(dp1685
g47
I-1
sg48
F100
sg49
F100
sS'x'
F0
sS'y'
F0
sg50
F1
sg51
S'81a54f4c-d4a1-11e8-a739-c038960d2073'
p1686
sbssg710
F2
sg711
I00
sg712
I00
sg713
F1
sg714
I01
sg715
F2
sg716
F729.38
sg717
F0
sg718
F0
sg719
I01
sg720
F2
sg721
F300
sg722
g723
sg724
I00
sg725
I00
sg726
F2
sg727
g32
sg728
I01
sg729
F0
sg730
g1632
sg731
I00
sg732
F100
sg733
(lp1687
sg735
F0
sg736
I00
sg737
g1639
sg739
S'11.png'
p1688
sg741
g723
sg742
I01
sg743
F7
sg744
S'81a54b82-d4a1-11e8-a739-c038960d2073'
p1689
sba(iclasses.clip
clip
p1690
(dp1691
g696
g697
sg698
I00
sg699
I00
sg700
(dp1692
g702
(iclasses.keyframe
keyframe
p1693
(dp1694
g47
I0
sg48
F100
sg49
F100
sS'x'
F0
sS'y'
F0
sg50
F1
sg51
S'85eb124e-d4a1-11e8-a739-c038960d2073'
p1695
sbsg706
(iclasses.keyframe
keyframe
p1696
(dp1697
g47
I-1
sg48
F100
sg49
F100
sS'x'
F0
sS'y'
F0
sg50
F1
sg51
S'85eb1398-d4a1-11e8-a739-c038960d2073'
p1698
sbssg710
F2
sg711
I00
sg712
I00
sg713
F1
sg714
I01
sg715
F2
sg716
F736.38
sg717
F40.5
sg718
F723
sg719
I01
sg720
F2
sg721
F300
sg722
g723
sg724
I00
sg725
I00
sg683
I00
sg726
F2
sg727
g32
sg728
I01
sg729
F0
sg730
g1632
sg731
I00
sg732
F100
sg733
(lp1699
sg735
F0
sg736
I00
sg737
g1639
sg739
S'11.png'
p1700
sg741
g723
sg742
I01
sg743
F0.87999999999999545
sg744
S'85eb0f92-d4a1-11e8-a739-c038960d2073'
p1701
sba(iclasses.clip
clip
p1702
(dp1703
g696
g697
sg698
I00
sg699
I00
sg700
(dp1704
g702
(iclasses.keyframe
keyframe
p1705
(dp1706
g47
I0
sg48
F100
sg49
F100
sS'x'
F0
sS'y'
F0
sg50
F1
sg51
S'8d938562-d4a1-11e8-a739-c038960d2073'
p1707
sbsg706
(iclasses.keyframe
keyframe
p1708
(dp1709
g47
I-1
sg48
F100
sg49
F100
sS'x'
F0
sS'y'
F0
sg50
F1
sg51
S'8d9386ac-d4a1-11e8-a739-c038960d2073'
p1710
sbssg710
F2
sg711
I00
sg712
I00
sg713
F1
sg714
I01
sg715
F2
sg716
F737.25999999999999
sg717
F0
sg718
F0
sg719
I01
sg720
F2
sg721
F300
sg722
g723
sg724
I00
sg725
I00
sg726
F2
sg727
g32
sg728
I01
sg729
F0
sg730
(iclasses.files
OpenShotFile
p1711
(dp1712
g82
F14999
sg83
S''
sg84
I0
sg85
S'/home/emi/Escritorio/thumbnail/d0058a94-cf29-11e8-9c22-c038960d2073_png_1.png'
p1713
sg87
S'/home/emi/Escritorio/Nuevas Tecnologias/1\xc2\xba Trimestre/big data presentacion/imagenes video/12.png'
p1714
sg89
Nsg90
g91
sg92
I0
sg48
I1080
sg93
g1
sg49
I1920
sg94
F300
sg95
F29.970029970029969
sg96
I1
sg97
S''
sg98
(F29.970029970029969
I0
tp1715
sg100
S''
sg51
S'd00ef4bc-cf29-11e8-9c22-c038960d2073'
p1716
sbsg731
I00
sg732
F100
sg733
(lp1717
sg735
F0
sg736
I00
sg737
S'/home/emi/Escritorio/thumbnail/d0058a94-cf29-11e8-9c22-c038960d2073_png_1.png'
p1718
sg739
S'12.png'
p1719
sg741
g723
sg742
I01
sg743
F7
sg744
S'8d9382b0-d4a1-11e8-a739-c038960d2073'
p1720
sba(iclasses.clip
clip
p1721
(dp1722
g696
g697
sg698
I00
sg699
I00
sg700
(dp1723
g702
(iclasses.keyframe
keyframe
p1724
(dp1725
g47
I0
sg48
F100
sg49
F100
sS'x'
F0
sS'y'
F0
sg50
F1
sg51
S'8f1cbca0-d4a1-11e8-a739-c038960d2073'
p1726
sbsg706
(iclasses.keyframe
keyframe
p1727
(dp1728
g47
I-1
sg48
F100
sg49
F100
sS'x'
F0
sS'y'
F0
sg50
F1
sg51
S'8f1cbd9a-d4a1-11e8-a739-c038960d2073'
p1729
sbssg710
F2
sg711
I00
sg712
I00
sg713
F1
sg714
I01
sg715
F2
sg716
F744.25999999999999
sg717
F0
sg718
F0
sg719
I01
sg720
F2
sg721
F300
sg722
g723
sg724
I00
sg725
I00
sg726
F2
sg727
g32
sg728
I01
sg729
F0
sg730
g1711
sg731
I00
sg732
F100
sg733
(lp1730
sg735
F0
sg736
I00
sg737
g1718
sg739
S'12.png'
p1731
sg741
g723
sg742
I01
sg743
F7
sg744
S'8f1cba2a-d4a1-11e8-a739-c038960d2073'
p1732
sba(iclasses.clip
clip
p1733
(dp1734
g696
g697
sg698
I00
sg699
I00
sg700
(dp1735
g702
(iclasses.keyframe
keyframe
p1736
(dp1737
g47
I0
sg48
F100
sg49
F100
sS'x'
F0
sS'y'
F0
sg50
F1
sg51
S'90a5a55a-d4a1-11e8-a739-c038960d2073'
p1738
sbsg706
(iclasses.keyframe
keyframe
p1739
(dp1740
g47
I-1
sg48
F100
sg49
F100
sS'x'
F0
sS'y'
F0
sg50
F1
sg51
S'90a5a67c-d4a1-11e8-a739-c038960d2073'
p1741
sbssg710
F2
sg711
I00
sg712
I00
sg713
F1
sg714
I01
sg715
F2
sg716
F751.25999999999999
sg717
F0
sg718
F0
sg719
I01
sg720
F2
sg721
F300
sg722
g723
sg724
I00
sg725
I00
sg726
F2
sg727
g32
sg728
I01
sg729
F0
sg730
g1711
sg731
I00
sg732
F100
sg733
(lp1742
sg735
F0
sg736
I00
sg737
g1718
sg739
S'12.png'
p1743
sg741
g723
sg742
I01
sg743
F7
sg744
S'90a5a2c6-d4a1-11e8-a739-c038960d2073'
p1744
sba(iclasses.clip
clip
p1745
(dp1746
g696
g697
sg698
I00
sg699
I00
sg700
(dp1747
g702
(iclasses.keyframe
keyframe
p1748
(dp1749
g47
I0
sg48
F100
sg49
F100
sS'x'
F0
sS'y'
F0
sg50
F1
sg51
S'9224f192-d4a1-11e8-a739-c038960d2073'
p1750
sbsg706
(iclasses.keyframe
keyframe
p1751
(dp1752
g47
I-1
sg48
F100
sg49
F100
sS'x'
F0
sS'y'
F0
sg50
F1
sg51
S'9224f2a0-d4a1-11e8-a739-c038960d2073'
p1753
sbssg710
F2
sg711
I00
sg712
I00
sg713
F1
sg714
I01
sg715
F2
sg716
F758.25999999999999
sg717
F0
sg718
F0
sg719
I01
sg720
F2
sg721
F300
sg722
g723
sg724
I00
sg725
I00
sg726
F2
sg727
g32
sg728
I01
sg729
F0
sg730
g1711
sg731
I00
sg732
F100
sg733
(lp1754
sg735
F0
sg736
I00
sg737
g1718
sg739
S'12.png'
p1755
sg741
g723
sg742
I01
sg743
F7
sg744
S'9224ef30-d4a1-11e8-a739-c038960d2073'
p1756
sba(iclasses.clip
clip
p1757
(dp1758
g696
g697
sg698
I00
sg699
I00
sg700
(dp1759
g702
(iclasses.keyframe
keyframe
p1760
(dp1761
g47
I0
sg48
F100
sg49
F100
sS'x'
F0
sS'y'
F0
sg50
F1
sg51
S'93dc84fa-d4a1-11e8-a739-c038960d2073'
p1762
sbsg706
(iclasses.keyframe
keyframe
p1763
(dp1764
g47
I-1
sg48
F100
sg49
F100
sS'x'
F0
sS'y'
F0
sg50
F1
sg51
S'93dc85e0-d4a1-11e8-a739-c038960d2073'
p1765
sbssg710
F2
sg711
I00
sg712
I00
sg713
F1
sg714
I01
sg715
F2
sg716
F765.25999999999999
sg717
F0
sg718
F0
sg719
I01
sg720
F2
sg721
F300
sg722
g723
sg724
I00
sg725
I00
sg726
F2
sg727
g32
sg728
I01
sg729
F0
sg730
g1711
sg731
I00
sg732
F100
sg733
(lp1766
sg735
F0
sg736
I00
sg737
g1718
sg739
S'12.png'
p1767
sg741
g723
sg742
I01
sg743
F7
sg744
S'93dc82b6-d4a1-11e8-a739-c038960d2073'
p1768
sba(iclasses.clip
clip
p1769
(dp1770
g696
g697
sg698
I00
sg699
I00
sg700
(dp1771
g702
(iclasses.keyframe
keyframe
p1772
(dp1773
g47
I0
sg48
F100
sg49
F100
sS'x'
F0
sS'y'
F0
sg50
F1
sg51
S'956b9888-d4a1-11e8-a739-c038960d2073'
p1774
sbsg706
(iclasses.keyframe
keyframe
p1775
(dp1776
g47
I-1
sg48
F100
sg49
F100
sS'x'
F0
sS'y'
F0
sg50
F1
sg51
S'956b99b4-d4a1-11e8-a739-c038960d2073'
p1777
sbssg710
F2
sg711
I00
sg712
I00
sg713
F1
sg714
I01
sg715
F2
sg716
F772.25999999999999
sg717
F0
sg718
F0
sg719
I01
sg720
F2
sg721
F300
sg722
g723
sg724
I00
sg725
I00
sg726
F2
sg727
g32
sg728
I01
sg729
F0
sg730
g1711
sg731
I00
sg732
F100
sg733
(lp1778
sg735
F0
sg736
I00
sg737
g1718
sg739
S'12.png'
p1779
sg741
g723
sg742
I01
sg743
F7
sg744
S'956b9608-d4a1-11e8-a739-c038960d2073'
p1780
sba(iclasses.clip
clip
p1781
(dp1782
g696
g697
sg698
I00
sg699
I00
sg700
(dp1783
g702
(iclasses.keyframe
keyframe
p1784
(dp1785
g47
I0
sg48
F100
sg49
F100
sS'x'
F0
sS'y'
F0
sg50
F1
sg51
S'971ceace-d4a1-11e8-a739-c038960d2073'
p1786
sbsg706
(iclasses.keyframe
keyframe
p1787
(dp1788
g47
I-1
sg48
F100
sg49
F100
sS'x'
F0
sS'y'
F0
sg50
F1
sg51
S'971cec04-d4a1-11e8-a739-c038960d2073'
p1789
sbssg710
F2
sg711
I00
sg712
I00
sg713
F1
sg714
I01
sg715
F2
sg716
F779.25999999999999
sg717
F35.5
sg718
F19540.5
sg719
I01
sg720
F2
sg721
F300
sg722
g723
sg724
I00
sg725
I00
sg683
I00
sg726
F2
sg727
g32
sg728
I01
sg729
F0
sg730
g1711
sg731
I00
sg732
F100
sg733
(lp1790
sg735
F0
sg736
I00
sg737
g1718
sg739
S'12.png'
p1791
sg741
g723
sg742
I01
sg743
F2.3600000000000136
sg744
S'971ce844-d4a1-11e8-a739-c038960d2073'
p1792
sbasg87
S'Pista 2'
p1793
sg89
g20
sS'play_audio'
p1794
I01
sS'y_top'
p1795
I6
sS'play_video'
p1796
I01
sS'y_bottom'
p1797
I65
sS'x'
I10
sS'transitions'
p1798
(lp1799
sg51
S'c601d78c-cf29-11e8-9c22-c038960d2073'
p1800
sba(iclasses.track
track
p1801
(dp1802
g34
(lp1803
(iclasses.clip
clip
p1804
(dp1805
g118
g119
sg120
I00
sg121
I00
sg122
(dp1806
g124
(iclasses.keyframe
keyframe
p1807
(dp1808
g47
I0
sg48
F100
sg49
F100
sS'x'
F0
sS'y'
F0
sg50
F1
sg51
S'47d0ab78-d482-11e8-b976-c038960d2073'
p1809
sbsg128
(iclasses.keyframe
keyframe
p1810
(dp1811
g47
I-1
sg48
F100
sg49
F100
sS'x'
F0
sS'y'
F0
sg50
F1
sg51
S'47d0ac7c-d482-11e8-b976-c038960d2073'
p1812
sbssg132
F2
sg133
I00
sg134
I00
sg135
F1
sg136
I01
sg137
F2
sg138
F0
sg139
F101.5
sg140
F97.5
sg141
I01
sg142
F2
sg143
F15.849166666666667
sg144
I00
sg145
S'centre'
p1813
sg147
I00
sg148
I00
sg149
I00
sg150
F2
sg151
g1801
sg152
I01
sg153
F0
sg154
(iclasses.files
OpenShotFile
p1814
(dp1815
g82
F474
sg83
S'AAC (Advanced Audio Coding)'
p1816
sg84
I0
sg85
S'/home/emi/Escritorio/thumbnail/46a91d7a-d482-11e8-b976-c038960d2073_m4a_1.png'
p1817
sg87
S'/home/emi/Descargas/00 - info.m4a'
p1818
sg89
Nsg90
S'audio'
p1819
sg92
I0
sg48
I0
sg93
g1
sg49
I0
sg94
F15.849166666666667
sg95
F29.970029970029969
sg96
I1
sg97
S''
sg98
(F29.970029970029969
I0
tp1820
sg100
S''
sg51
S'46aa434e-d482-11e8-b976-c038960d2073'
p1821
sbsg155
I00
sg156
F109.54000000000001
sg157
(lp1822
sg159
F0
sg160
I00
sg161
S''
sg163
S'00 - info.m4a'
p1823
sg165
S'centre'
p1824
sg166
I01
sg167
F15.85
sg168
S'47d0a880-d482-11e8-b976-c038960d2073'
p1825
sba(iclasses.clip
clip
p1826
(dp1827
g184
g185
sg186
I00
sg187
I00
sg188
(dp1828
g190
(iclasses.keyframe
keyframe
p1829
(dp1830
g47
I0
sg48
F100
sg49
F100
sS'x'
F0
sS'y'
F0
sg50
F1
sg51
S'ca841996-d2da-11e8-a821-f0761c1894b4'
p1831
sbsg194
(iclasses.keyframe
keyframe
p1832
(dp1833
g47
I-1
sg48
F100
sg49
F100
sS'x'
F0
sS'y'
F0
sg50
F1
sg51
S'ca841ab8-d2da-11e8-a821-f0761c1894b4'
p1834
sbssg198
F2
sg199
I00
sg200
I00
sg201
F1
sg202
I01
sg203
F2
sg204
F15.849166666666669
sg27
F98.5
sg205
F636.5
sg206
I01
sg207
F2
sg208
F44.811433333333333
sS'show_preview'
p1835
I00
sg209
g210
sg211
I00
sg212
I00
sS'request_show_properties'
p1836
I00
sg213
F2
sg214
g1801
sg215
I01
sg216
F0
sg217
(iclasses.files
OpenShotFile
p1837
(dp1838
g82
F1342
sg83
S'AAC (Advanced Audio Coding)'
p1839
sg84
I0
sg85
S'/home/emi/Escritorio/thumbnail/c895c508-d2da-11e8-a821-f0761c1894b4_m4a_1.png'
p1840
sg87
S'/home/emi/Descargas/01 - informacion.m4a'
p1841
sg89
Nsg90
S'audio'
p1842
sg92
I0
sg48
I0
sg93
g1
sg49
I0
sg94
F44.811433333333333
sg95
F29.970029970029969
sg96
I1
sg97
S''
sg98
(F29.970029970029969
I0
tp1843
sg100
S''
sg51
S'c8a489a8-d2da-11e8-a821-f0761c1894b4'
p1844
sbsg224
I00
sg225
F100
sg226
(lp1845
sg228
F0
sg229
I00
sg230
S''
sg232
S'01 - informacion.m4a'
p1846
sg234
g210
sg235
I01
sg236
F44.811433333333333
sg237
S'ca841716-d2da-11e8-a821-f0761c1894b4'
p1847
sba(iclasses.clip
clip
p1848
(dp1849
g118
g119
sg120
I00
sg121
I00
sg122
(dp1850
g124
(iclasses.keyframe
keyframe
p1851
(dp1852
g47
I0
sg48
F100
sg49
F100
sS'x'
F0
sS'y'
F0
sg50
F1
sg51
S'8aea0c90-d489-11e8-b976-c038960d2073'
p1853
sbsg128
(iclasses.keyframe
keyframe
p1854
(dp1855
g47
I-1
sg48
F100
sg49
F100
sS'x'
F0
sS'y'
F0
sg50
F1
sg51
S'8aea0db2-d489-11e8-b976-c038960d2073'
p1856
sbssg132
F2
sg133
I00
sg134
I00
sg135
F1
sg136
I01
sg137
F2
sg138
F60.660600000000002
sg139
F101.5
sg140
F2123.5
sg141
I01
sg142
F2
sg143
F91.858433333333338
sg144
I00
sg145
g146
sg147
I00
sg148
I00
sg149
I00
sg150
F2
sg151
g1801
sg152
I01
sg153
F0
sg154
(iclasses.files
OpenShotFile
p1857
(dp1858
g82
F2752
sg83
S'AAC (Advanced Audio Coding)'
p1859
sg84
I0
sg85
S'/home/emi/Escritorio/thumbnail/89d8a4c4-d489-11e8-b976-c038960d2073_m4a_1.png'
p1860
sg87
S'/home/emi/Descargas/02 - Hadoop.m4a'
p1861
sg89
Nsg90
g1819
sg92
I0
sg48
I0
sg93
g1
sg49
I0
sg94
F91.858433333333338
sg95
F29.970029970029969
sg96
I1
sg97
S''
sg98
(F29.970029970029969
I0
tp1862
sg100
S''
sg51
S'89d9d34e-d489-11e8-b976-c038960d2073'
p1863
sbsg155
I00
sg156
F100
sg157
(lp1864
sg159
F0
sg160
I00
sg161
S''
sg163
S'02 - Hadoop.m4a'
p1865
sg165
g146
sg166
I01
sg167
F91.858433333333338
sg168
S'8aea0a1a-d489-11e8-b976-c038960d2073'
p1866
sba(iclasses.clip
clip
p1867
(dp1868
g551
g552
sg553
I00
sg554
I00
sg555
(dp1869
g557
(iclasses.keyframe
keyframe
p1870
(dp1871
g47
I0
sg48
F100
sg49
F100
sS'x'
F0
sS'y'
F0
sg50
F1
sg51
S'a1195346-d497-11e8-9441-c038960d2073'
p1872
sbsg561
(iclasses.keyframe
keyframe
p1873
(dp1874
g47
I-1
sg48
F100
sg49
F100
sS'x'
F0
sS'y'
F0
sg50
F1
sg51
S'a1195468-d497-11e8-9441-c038960d2073'
p1875
sbssg565
F2
sg566
I00
sg567
I00
sg568
F1
sg569
I01
sg570
F2
sg571
F152.51903333333337
sg572
F38.5
sg573
F1455.0120833333331
sg574
I01
sg575
F2
sg576
F57.123733333333334
sg577
g578
sg579
I00
sg580
I00
sg538
I00
sg581
F2
sg582
g1801
sg583
I01
sg584
F0
sg585
(iclasses.files
OpenShotFile
p1876
(dp1877
g82
F1711
sg83
S'AAC (Advanced Audio Coding)'
p1878
sg84
I0
sg85
S'/home/emi/Escritorio/thumbnail/9fa64b86-d497-11e8-9441-c038960d2073_m4a_1.png'
p1879
sg87
S'/home/emi/Descargas/03 - tecnologi\xcc\x81a.m4a'
p1880
sg89
Nsg90
S'audio'
p1881
sg92
I0
sg48
I0
sg93
g1
sg49
I0
sg94
F57.123733333333334
sg95
F29.970029970029969
sg96
I1
sg97
S''
sg98
(F29.970029970029969
I0
tp1882
sg100
S''
sg51
S'9fa76e08-d497-11e8-9441-c038960d2073'
p1883
sbsg586
I00
sg587
F100
sg588
(lp1884
sg590
F0
sg591
I00
sg592
S''
sg594
S'03 - tecnologi\xcc\x81a.m4a'
p1885
sg596
g578
sg597
I01
sg598
F56.000966666666642
sg599
S'a11950bc-d497-11e8-9441-c038960d2073'
p1886
sba(iclasses.clip
clip
p1887
(dp1888
g551
g552
sg553
I00
sg554
I00
sg555
(dp1889
g557
(iclasses.keyframe
keyframe
p1890
(dp1891
g47
I0
sg48
F100
sg49
F100
sS'x'
F0
sS'y'
F0
sg50
F1
sg51
S'bd32f0fa-d497-11e8-9441-c038960d2073'
p1892
sbsg561
(iclasses.keyframe
keyframe
p1893
(dp1894
g47
I-1
sg48
F100
sg49
F100
sS'x'
F0
sS'y'
F0
sg50
F1
sg51
S'bd32f21c-d497-11e8-9441-c038960d2073'
p1895
sbssg565
F2
sg566
I00
sg567
I00
sg568
F1
sg569
I01
sg570
F2
sg571
F208.52000000000001
sg572
F103.5
sg573
F3978.5
sg574
I01
sg575
F2
sg576
F144.04390000000001
sg577
g578
sg579
I00
sg580
I00
sS'request_show_properties'
p1896
I00
sg581
F2
sg582
g1801
sg583
I01
sg584
F0
sg585
(iclasses.files
OpenShotFile
p1897
(dp1898
g82
F4316
sg83
S'AAC (Advanced Audio Coding)'
p1899
sg84
I0
sg85
S'/home/emi/Escritorio/thumbnail/9fa47d4c-d497-11e8-9441-c038960d2073_m4a_1.png'
p1900
sg87
S'/home/emi/Descargas/04 - infor.m4a'
p1901
sg89
Nsg90
g1881
sg92
I0
sg48
I0
sg93
g1
sg49
I0
sg94
F144.04390000000001
sg95
F29.970029970029969
sg96
I1
sg97
S''
sg98
(F29.970029970029969
I0
tp1902
sg100
S''
sg51
S'9fa5e484-d497-11e8-9441-c038960d2073'
p1903
sbsg586
I00
sg587
F100
sg588
(lp1904
sg590
F0
sg591
I00
sg592
S''
sg594
S'04 - infor.m4a'
p1905
sg596
g578
sg597
I01
sg598
F110.3133333333333
sg599
S'bd32ee70-d497-11e8-9441-c038960d2073'
p1906
sba(iclasses.clip
clip
p1907
(dp1908
S'color'
p1909
S'Gold'
p1910
sS'moved'
p1911
I00
sS'video_fade_out'
p1912
I00
sS'keyframes'
p1913
(dp1914
S'start'
p1915
(iclasses.keyframe
keyframe
p1916
(dp1917
g47
I0
sg48
F100
sg49
F100
sS'x'
F0
sS'y'
F0
sg50
F1
sg51
S'094eba28-d498-11e8-9906-c038960d2073'
p1918
sbsS'end'
p1919
(iclasses.keyframe
keyframe
p1920
(dp1921
g47
I-1
sg48
F100
sg49
F100
sS'x'
F0
sS'y'
F0
sg50
F1
sg51
S'094ebdac-d498-11e8-9906-c038960d2073'
p1922
sbssS'video_fade_out_amount'
p1923
F2
sS'audio_fade_out'
p1924
I00
sS'reversed'
p1925
I00
sS'speed'
p1926
F1
sS'fill'
p1927
I01
sS'audio_fade_in_amount'
p1928
F2
sS'position_on_track'
p1929
F318.83333333333326
sS'drag_y'
p1930
F100.5
sS'drag_x'
p1931
F12340.5
sS'play_audio'
p1932
I01
sS'audio_fade_out_amount'
p1933
F2
sS'max_length'
p1934
F61.327933333333334
sS'show_preview'
p1935
I00
sS'valign'
p1936
S'centre'
p1937
sS'video_fade_in'
p1938
I00
sS'audio_fade_in'
p1939
I00
sS'request_show_properties'
p1940
I00
sS'video_fade_in_amount'
p1941
F2
sS'parent'
p1942
g1801
sS'composite'
p1943
I01
sS'start_time'
p1944
F1.4266666666667334
sS'file_object'
p1945
(iclasses.files
OpenShotFile
p1946
(dp1947
g82
F1837
sg83
S'AAC (Advanced Audio Coding)'
p1948
sg84
I0
sg85
S'/home/emi/Escritorio/thumbnail/9fa2a288-d497-11e8-9441-c038960d2073_m4a_1.png'
p1949
sg87
S'/home/emi/Descargas/04 - 01 info.m4a'
p1950
sg89
Nsg90
g1881
sg92
I0
sg48
I0
sg93
g1
sg49
I0
sg94
F61.327933333333334
sg95
F29.970029970029969
sg96
I1
sg97
S''
sg98
(F29.970029970029969
I0
tp1951
sg100
S''
sg51
S'9fa3e4ae-d497-11e8-9441-c038960d2073'
p1952
sbsS'distort'
p1953
I00
sS'volume'
p1954
F100
sS'effects'
p1955
(lp1956
sS'rotation'
p1957
F0
sS'is_timeline_scrolling'
p1958
I00
sS'thumb_location'
p1959
S''
sS'name'
p1960
S'04 - 01 info.m4a'
p1961
sS'halign'
p1962
g1937
sS'play_video'
p1963
I01
sS'end_time'
p1964
F52.976666666666802
sS'unique_id'
p1965
S'439dc8fe-d498-11e8-a135-c038960d2073'
p1966
sba(iclasses.clip
clip
p1967
(dp1968
g696
g697
sg698
I00
sg699
I00
sg700
(dp1969
g702
(iclasses.keyframe
keyframe
p1970
(dp1971
g47
I0
sg48
F100
sg49
F100
sS'x'
F0
sS'y'
F0
sg50
F1
sg51
S'82f2a1f4-d49e-11e8-a739-c038960d2073'
p1972
sbsg706
(iclasses.keyframe
keyframe
p1973
(dp1974
g47
I-1
sg48
F100
sg49
F100
sS'x'
F0
sS'y'
F0
sg50
F1
sg51
S'82f2a334-d49e-11e8-a739-c038960d2073'
p1975
sbssg710
F2
sg711
I00
sg712
I00
sg713
F1
sg714
I01
sg715
F2
sg716
F370.38333333333333
sg717
F0
sg718
F0
sg719
I01
sg720
F2
sg721
F39.739699999999999
sg722
g723
sg724
I00
sg725
I00
sg726
F2
sg727
g1801
sg728
I01
sg729
F0
sg730
(iclasses.files
OpenShotFile
p1976
(dp1977
g82
F1190
sg83
S'AAC (Advanced Audio Coding)'
p1978
sg84
I0
sg85
S'/home/emi/Escritorio/thumbnail/793adc30-d49e-11e8-a739-c038960d2073_m4a_1.png'
p1979
sg87
S'/home/emi/Descargas/Fichaje.m4a'
p1980
sg89
Nsg90
S'audio'
p1981
sg92
I0
sg48
I0
sg93
g1
sg49
I0
sg94
F39.739699999999999
sg95
F29.970029970029969
sg96
I1
sg97
S''
sg98
(F29.970029970029969
I0
tp1982
sg100
S''
sg51
S'793c47f0-d49e-11e8-a739-c038960d2073'
p1983
sbsg731
I00
sg732
F100
sg733
(lp1984
sg735
F0
sg736
I00
sg737
S''
sg739
S'Fichaje.m4a'
p1985
sg741
g723
sg742
I01
sg743
F39.739699999999999
sg744
S'82f29f42-d49e-11e8-a739-c038960d2073'
p1986
sba(iclasses.clip
clip
p1987
(dp1988
g696
g697
sg698
I00
sg699
I00
sg700
(dp1989
g702
(iclasses.keyframe
keyframe
p1990
(dp1991
g47
I0
sg48
F100
sg49
F100
sS'x'
F0
sS'y'
F0
sg50
F1
sg51
S'c1189150-d49e-11e8-a739-c038960d2073'
p1992
sbsg706
(iclasses.keyframe
keyframe
p1993
(dp1994
g47
I-1
sg48
F100
sg49
F100
sS'x'
F0
sS'y'
F0
sg50
F1
sg51
S'c118929a-d49e-11e8-a739-c038960d2073'
p1995
sbssg710
F2
sg711
I00
sg712
I00
sg713
F1
sg714
I01
sg715
F2
sg716
F410.12303333333335
sg717
F0
sg718
F0
sg719
I01
sg720
F2
sg721
F106.63986666666666
sg722
g723
sg724
I00
sg725
I00
sg726
F2
sg727
g1801
sg728
I01
sg729
F0
sg730
(iclasses.files
OpenShotFile
p1996
(dp1997
g82
F3195
sg83
S'AAC (Advanced Audio Coding)'
p1998
sg84
I0
sg85
S'/home/emi/Escritorio/thumbnail/745db912-d49e-11e8-a739-c038960d2073_m4a_1.png'
p1999
sg87
S'/home/emi/Descargas/06 - datos.m4a'
p2000
sg89
Nsg90
g1981
sg92
I0
sg48
I0
sg93
g1
sg49
I0
sg94
F106.63986666666666
sg95
F29.970029970029969
sg96
I1
sg97
S''
sg98
(F29.970029970029969
I0
tp2001
sg100
S''
sg51
S'745f171c-d49e-11e8-a739-c038960d2073'
p2002
sbsg731
I00
sg732
F100
sg733
(lp2003
sg735
F0
sg736
I00
sg737
S''
sg739
S'06 - datos.m4a'
p2004
sg741
g723
sg742
I01
sg743
F106.63986666666666
sg744
S'c1188e6c-d49e-11e8-a739-c038960d2073'
p2005
sba(iclasses.clip
clip
p2006
(dp2007
g696
g697
sg698
I00
sg699
I00
sg700
(dp2008
g702
(iclasses.keyframe
keyframe
p2009
(dp2010
g47
I0
sg48
F100
sg49
F100
sS'x'
F0
sS'y'
F0
sg50
F1
sg51
S'169ea768-d49f-11e8-a739-c038960d2073'
p2011
sbsg706
(iclasses.keyframe
keyframe
p2012
(dp2013
g47
I-1
sg48
F100
sg49
F100
sS'x'
F0
sS'y'
F0
sg50
F1
sg51
S'169ea89e-d49f-11e8-a739-c038960d2073'
p2014
sbssg710
F2
sg711
I00
sg712
I00
sg713
F1
sg714
I01
sg715
F2
sg716
F516.76290000000006
sg717
F0
sg718
F0
sg719
I01
sg720
F2
sg721
F133.13300000000001
sg722
g723
sg724
I00
sg725
I00
sg726
F2
sg727
g1801
sg728
I01
sg729
F0
sg730
(iclasses.files
OpenShotFile
p2015
(dp2016
g82
F3989
sg83
S'AAC (Advanced Audio Coding)'
p2017
sg84
I0
sg85
S'/home/emi/Escritorio/thumbnail/6686c1c6-d49e-11e8-a739-c038960d2073_m4a_1.png'
p2018
sg87
S'/home/emi/Descargas/Buen uso de big data.m4a'
p2019
sg89
Nsg90
g1981
sg92
I0
sg48
I0
sg93
g1
sg49
I0
sg94
F133.13300000000001
sg95
F29.970029970029969
sg96
I1
sg97
S''
sg98
(F29.970029970029969
I0
tp2020
sg100
S''
sg51
S'6687ed3a-d49e-11e8-a739-c038960d2073'
p2021
sbsg731
I00
sg732
F100
sg733
(lp2022
sg735
F0
sg736
I00
sg737
S''
sg739
S'Buen uso de big data.m4a'
p2023
sg741
g723
sg742
I01
sg743
F133.13300000000001
sg744
S'169ea4ca-d49f-11e8-a739-c038960d2073'
p2024
sba(iclasses.clip
clip
p2025
(dp2026
g696
g697
sg698
I00
sg699
I00
sg700
(dp2027
g702
(iclasses.keyframe
keyframe
p2028
(dp2029
g47
I0
sg48
F100
sg49
F100
sS'x'
F0
sS'y'
F0
sg50
F1
sg51
S'2d7d1602-d4a1-11e8-a739-c038960d2073'
p2030
sbsg706
(iclasses.keyframe
keyframe
p2031
(dp2032
g47
I-1
sg48
F100
sg49
F100
sS'x'
F0
sS'y'
F0
sg50
F1
sg51
S'2d7d1756-d4a1-11e8-a739-c038960d2073'
p2033
sbssg710
F2
sg711
I00
sg712
I00
sg713
F1
sg714
I01
sg715
F2
sg716
F649.8959000000001
sg717
F0
sg718
F0
sg719
I01
sg720
F2
sg721
F12.846166666666667
sg722
g723
sg724
I00
sg725
I00
sg726
F2
sg727
g1801
sg728
I01
sg729
F0
sg730
(iclasses.files
OpenShotFile
p2034
(dp2035
g82
F384
sg83
S'AAC (Advanced Audio Coding)'
p2036
sg84
I0
sg85
S'/home/emi/Escritorio/thumbnail/2b0e9382-d4a1-11e8-a739-c038960d2073_m4a_1.png'
p2037
sg87
S'/home/emi/Descargas/Conclusio\xcc\x81n.m4a'
p2038
sg89
Nsg90
g1981
sg92
I0
sg48
I0
sg93
g1
sg49
I0
sg94
F12.846166666666667
sg95
F29.970029970029969
sg96
I1
sg97
S''
sg98
(F29.970029970029969
I0
tp2039
sg100
S''
sg51
S'2b0fb898-d4a1-11e8-a739-c038960d2073'
p2040
sbsg731
I00
sg732
F100
sg733
(lp2041
sg735
F0
sg736
I00
sg737
S''
sg739
S'Conclusio\xcc\x81n.m4a'
p2042
sg741
g723
sg742
I01
sg743
F12.846166666666667
sg744
S'2d7d133c-d4a1-11e8-a739-c038960d2073'
p2043
sba(iclasses.clip
clip
p2044
(dp2045
g696
g697
sg698
I00
sg699
I00
sg700
(dp2046
g702
(iclasses.keyframe
keyframe
p2047
(dp2048
g47
I0
sg48
F100
sg49
F100
sS'x'
F0
sS'y'
F0
sg50
F1
sg51
S'4cc26774-d4a1-11e8-a739-c038960d2073'
p2049
sbsg706
(iclasses.keyframe
keyframe
p2050
(dp2051
g47
I-1
sg48
F100
sg49
F100
sS'x'
F0
sS'y'
F0
sg50
F1
sg51
S'4cc26878-d4a1-11e8-a739-c038960d2073'
p2052
sbssg710
F2
sg711
I00
sg712
I00
sg713
F1
sg714
I01
sg715
F2
sg716
F662.7420666666668
sg717
F0
sg718
F0
sg719
I01
sg720
F2
sg721
F38.638600000000004
sg722
g723
sg724
I00
sg725
I00
sg726
F2
sg727
g1801
sg728
I01
sg729
F0
sg730
(iclasses.files
OpenShotFile
p2053
(dp2054
g82
F1157
sg83
S'AAC (Advanced Audio Coding)'
p2055
sg84
I0
sg85
S'/home/emi/Escritorio/thumbnail/2b0cfb6c-d4a1-11e8-a739-c038960d2073_m4a_1.png'
p2056
sg87
S'/home/emi/Descargas/Conclusio\xcc\x81n 01.m4a'
p2057
sg89
Nsg90
g1981
sg92
I0
sg48
I0
sg93
g1
sg49
I0
sg94
F38.638600000000004
sg95
F29.970029970029969
sg96
I1
sg97
S''
sg98
(F29.970029970029969
I0
tp2058
sg100
S''
sg51
S'2b0e17e0-d4a1-11e8-a739-c038960d2073'
p2059
sbsg731
I00
sg732
F100
sg733
(lp2060
sg735
F0
sg736
I00
sg737
S''
sg739
S'Conclusio\xcc\x81n 01.m4a'
p2061
sg741
g723
sg742
I01
sg743
F38.638600000000004
sg744
S'4cc264ea-d4a1-11e8-a739-c038960d2073'
p2062
sba(iclasses.clip
clip
p2063
(dp2064
g696
g697
sg698
I00
sg699
I00
sg700
(dp2065
g702
(iclasses.keyframe
keyframe
p2066
(dp2067
g47
I0
sg48
F100
sg49
F100
sS'x'
F0
sS'y'
F0
sg50
F1
sg51
S'51970f98-d4a1-11e8-a739-c038960d2073'
p2068
sbsg706
(iclasses.keyframe
keyframe
p2069
(dp2070
g47
I-1
sg48
F100
sg49
F100
sS'x'
F0
sS'y'
F0
sg50
F1
sg51
S'519710e2-d4a1-11e8-a739-c038960d2073'
p2071
sbssg710
F2
sg711
I00
sg712
I00
sg713
F1
sg714
I01
sg715
F2
sg716
F701.3806666666668
sg717
F0
sg718
F0
sg719
I01
sg720
F2
sg721
F35.835799999999999
sg722
g723
sg724
I00
sg725
I00
sg726
F2
sg727
g1801
sg728
I01
sg729
F0
sg730
(iclasses.files
OpenShotFile
p2072
(dp2073
g82
F1073
sg83
S'AAC (Advanced Audio Coding)'
p2074
sg84
I0
sg85
S'/home/emi/Escritorio/thumbnail/2b0b4c18-d4a1-11e8-a739-c038960d2073_m4a_1.png'
p2075
sg87
S'/home/emi/Descargas/Conclusio\xcc\x81n 02.m4a'
p2076
sg89
Nsg90
g1981
sg92
I0
sg48
I0
sg93
g1
sg49
I0
sg94
F35.835799999999999
sg95
F29.970029970029969
sg96
I1
sg97
S''
sg98
(F29.970029970029969
I0
tp2077
sg100
S''
sg51
S'2b0c82a4-d4a1-11e8-a739-c038960d2073'
p2078
sbsg731
I00
sg732
F100
sg733
(lp2079
sg735
F0
sg736
I00
sg737
S''
sg739
S'Conclusio\xcc\x81n 02.m4a'
p2080
sg741
g723
sg742
I01
sg743
F35.835799999999999
sg744
S'51970cdc-d4a1-11e8-a739-c038960d2073'
p2081
sba(iclasses.clip
clip
p2082
(dp2083
g696
g697
sg698
I00
sg699
I00
sg700
(dp2084
g702
(iclasses.keyframe
keyframe
p2085
(dp2086
g47
I0
sg48
F100
sg49
F100
sS'x'
F0
sS'y'
F0
sg50
F1
sg51
S'5387e43a-d4a1-11e8-a739-c038960d2073'
p2087
sbsg706
(iclasses.keyframe
keyframe
p2088
(dp2089
g47
I-1
sg48
F100
sg49
F100
sS'x'
F0
sS'y'
F0
sg50
F1
sg51
S'5387e534-d4a1-11e8-a739-c038960d2073'
p2090
sbssg710
F2
sg711
I00
sg712
I00
sg713
F1
sg714
I01
sg715
F2
sg716
F737.21646666666686
sg717
F0
sg718
F0
sg719
I01
sg720
F2
sg721
F44.344300000000004
sg722
g723
sg724
I00
sg725
I00
sg726
F2
sg727
g1801
sg728
I01
sg729
F0
sg730
(iclasses.files
OpenShotFile
p2091
(dp2092
g82
F1328
sg83
S'AAC (Advanced Audio Coding)'
p2093
sg84
I0
sg85
S'/home/emi/Escritorio/thumbnail/2b09a7a0-d4a1-11e8-a739-c038960d2073_m4a_1.png'
p2094
sg87
S'/home/emi/Descargas/Conclusio\xcc\x81n 03.m4a'
p2095
sg89
Nsg90
g1981
sg92
I0
sg48
I0
sg93
g1
sg49
I0
sg94
F44.344300000000004
sg95
F29.970029970029969
sg96
I1
sg97
S''
sg98
(F29.970029970029969
I0
tp2096
sg100
S''
sg51
S'2b0acffe-d4a1-11e8-a739-c038960d2073'
p2097
sbsg731
I00
sg732
F100
sg733
(lp2098
sg735
F0
sg736
I00
sg737
S''
sg739
S'Conclusio\xcc\x81n 03.m4a'
p2099
sg741
g723
sg742
I01
sg743
F44.344300000000004
sg744
S'5387e1e2-d4a1-11e8-a739-c038960d2073'
p2100
sba(iclasses.clip
clip
p2101
(dp2102
g696
g697
sg698
I00
sg699
I00
sg700
(dp2103
g702
(iclasses.keyframe
keyframe
p2104
(dp2105
g47
I0
sg48
F100
sg49
F100
sS'x'
F0
sS'y'
F0
sg50
F1
sg51
S'5b16ae7e-d4a2-11e8-a739-c038960d2073'
p2106
sbsg706
(iclasses.keyframe
keyframe
p2107
(dp2108
g47
I-1
sg48
F100
sg49
F100
sS'x'
F0
sS'y'
F0
sg50
F1
sg51
S'5b16afc8-d4a2-11e8-a739-c038960d2073'
p2109
sbssg710
F2
sg711
I00
sg712
I00
sg713
F1
sg714
I01
sg715
F2
sg716
F781.56076666666684
sg717
F0
sg718
F0
sg719
I01
sg720
F2
sg721
F14.8148
sg722
g723
sg724
I00
sg725
I00
sg726
F2
sg727
g1801
sg728
I01
sg729
F0
sg730
(iclasses.files
OpenShotFile
p2110
(dp2111
g82
F443
sg83
S'AAC (Advanced Audio Coding)'
p2112
sg84
I0
sg85
S'/home/emi/Escritorio/thumbnail/56b15f6e-d4a2-11e8-a739-c038960d2073_m4a_1.png'
p2113
sg87
S'/home/emi/Descargas/Fin vi\xcc\x81deo.m4a'
p2114
sg89
Nsg90
g1981
sg92
I0
sg48
I0
sg93
g1
sg49
I0
sg94
F14.8148
sg95
F29.970029970029969
sg96
I1
sg97
S''
sg98
(F29.970029970029969
I0
tp2115
sg100
S''
sg51
S'56b2cd04-d4a2-11e8-a739-c038960d2073'
p2116
sbsg731
I00
sg732
F100
sg733
(lp2117
sg735
F0
sg736
I00
sg737
S''
sg739
S'Fin vi\xcc\x81deo.m4a'
p2118
sg741
g723
sg742
I01
sg743
F14.8148
sg744
S'5b16abb8-d4a2-11e8-a739-c038960d2073'
p2119
sbasg87
S'Pista 1'
p2120
sg89
g20
sg1794
I01
sg1795
I71
sg1796
I01
sg1797
I130
sS'x'
I10
sg1798
(lp2121
sg51
S'c601dd2c-cf29-11e8-9c22-c038960d2073'
p2122
sbasS'markers'
p2123
(lp2124
sS'project'
p2125
g1
sS'length'
p2126
F796.37556666666683
sS'ruler_time'
p2127
Nsg205
F769.54166666666674
sS'play_head_line'
p2128
NsbasS'refresh_xml'
p2129
I01
sS'project_type'
p2130
S'HD 1080p 60 fps'
p2131
sS'sequences'
p2132
(lp2133
g20
asS'DEBUG'
p2134
I01
sS'UI_DIR'
p2135
S'/usr/lib/pymodules/python2.7/openshot/windows/ui'
p2136
sS'PROFILES_DIR'
p2137
S'/usr/lib/pymodules/python2.7/openshot/profiles'
p2138
sS'BASE_DIR'
p2139
S'/usr/lib/pymodules/python2.7'
p2140
sS'canvas'
p2141
NsS'EXPORT_PRESETS_DIR'
p2142
S'/usr/lib/pymodules/python2.7/openshot/export_presets'
p2143
sS'USER_TRANSITIONS_DIR'
p2144
S'/home/emi/.openshot/user_transitions'
p2145
sS'EFFECTS_DIR'
p2146
S'/usr/lib/pymodules/python2.7/openshot/effects'
p2147
sS'BLENDER_DIR'
p2148
S'/usr/lib/pymodules/python2.7/openshot/blender'
p2149
sS'thumbnailer'
p2150
Nsg24
S'video ant'
p2151
sS'file_type'
p2152
S'ascii'
p2153
sS'theme'
p2154
Vfresher
p2155
sS'project_folder'
p2156
(iclasses.files
OpenShotFolder
p2157
(dp2158
S'queue'
p2159
(lp2160
sg24
S''
sg76
NsS'items'
p2161
(lp2162
g1711
ag1632
ag1553
ag1522
ag1286
ag1086
ag1007
ag684
ag539
ag362
ag218
ag80
ag1837
ag1814
ag1857
ag1946
ag1897
ag1876
ag2015
ag1996
ag1976
ag2091
ag2072
ag2053
ag2034
ag2110
a(iclasses.files
OpenShotFile
p2163
(dp2164
g82
F23870
sg83
S'MP3 (MPEG audio layer 3)'
p2165
sg84
I0
sg85
S'/home/emi/Escritorio/thumbnail/3ca40718-d4a5-11e8-b420-c038960d2073_mp4_1.png'
p2166
sg87
S'/home/emi/Escritorio/big data aplicada al futbol.mp4'
p2167
sg89
Nsg90
S'video'
p2168
sg92
I0
sg48
I720
sg93
g1
sg49
I1280
sg94
F796.49570000000006
sg95
F29.970029970029969
sg96
I1
sg97
S'H.264 / AVC / MPEG-4 AVC / MPEG-4 part 10'
p2169
sg98
(F29.970029970029969
I0
tp2170
sg100
S''
sg51
S'3ce7e1a4-d4a5-11e8-b420-c038960d2073'
p2171
sbasS'label'
p2172
S''
sg2125
g1
sS'location'
p2173
S''
sg114
S'c601cbe8-cf29-11e8-9c22-c038960d2073'
p2174
sbsS'form'
p2175
NsS'folder'
p2176
S'/home/emi/Escritorio'
p2177
sS'USER_PROFILES_DIR'
p2178
S'/home/emi/.openshot/user_profiles'
p2179
sb.